///////////////////////////////////////////////////////////////////////////////
//
// IAR ANSI C/C++ Compiler V7.20.2.7424/W32 for ARM       21/Mar/2017  16:05:55
// Copyright 1999-2014 IAR Systems AB.
//
//    Cpu mode     =  thumb
//    Endian       =  little
//    Source file  =  E:\znc\project\K60FN\network_car\Board\src\vcan_sd_app.c
//    Command line =  
//        E:\znc\project\K60FN\network_car\Board\src\vcan_sd_app.c -D DEBUG -D
//        ARM_MATH_CM4 -D MK60F15 -D MK60FN15 -lA
//        E:\znc\project\K60FN\network_car\Prj\IAR\FN15_Debug\List\ -o
//        E:\znc\project\K60FN\network_car\Prj\IAR\FN15_Debug\Obj\ --no_cse
//        --no_unroll --no_inline --no_code_motion --no_tbaa --no_clustering
//        --no_scheduling --debug --endian=little --cpu=Cortex-M4F -e
//        --char_is_signed --fpu=VFPv4_sp --dlib_config
//        E:\iar\arm\INC\c\DLib_Config_Full.h -I
//        E:\znc\project\K60FN\network_car\Prj\IAR\..\..\App\ -I
//        E:\znc\project\K60FN\network_car\Prj\IAR\..\..\App\Inc\ -I
//        E:\znc\project\K60FN\network_car\Prj\IAR\..\..\Board\Inc\ -I
//        E:\znc\project\K60FN\network_car\Prj\IAR\..\..\Chip\inc\ -I
//        E:\znc\project\K60FN\network_car\Prj\IAR\..\..\Chip\inc\IAR\ -I
//        E:\znc\project\K60FN\network_car\Prj\IAR\..\..\Chip\inc\kinetis\ -I
//        E:\znc\project\K60FN\network_car\Prj\IAR\..\..\Lib\CMSIS\Inc\ -I
//        E:\znc\project\K60FN\network_car\Prj\IAR\..\..\Lib\FatFs\ -I
//        E:\znc\project\K60FN\network_car\Prj\IAR\..\..\Lib\USB\ -On
//    List file    =  
//        E:\znc\project\K60FN\network_car\Prj\IAR\FN15_Debug\List\vcan_sd_app.s
//
///////////////////////////////////////////////////////////////////////////////

        RTMODEL "__SystemLibrary", "DLib"
        RTMODEL "__dlib_file_descriptor", "1"
        RTMODEL "__dlib_full_locale_support", "1"
        AAPCS BASE,INTERWORK,VFP
        PRESERVE8
        REQUIRE8

        #define SHT_PROGBITS 0x1

        EXTERN LCD_ST7735R_init
        EXTERN LCD_ST7735R_ptlon
        EXTERN assert_failed

        PUBLIC LCD_ui_pic
        PUBLIC LCD_ui_time
        PUBLIC LCD_ui_time_init
        PUBLIC pic_buff
        PUBLIC ui_pic_info
        PUBLIC ui_pic_init
        
          CFI Names cfiNames0
          CFI StackFrame CFA R13 DATA
          CFI Resource R0:32, R1:32, R2:32, R3:32, R4:32, R5:32, R6:32, R7:32
          CFI Resource R8:32, R9:32, R10:32, R11:32, R12:32, R13:32, R14:32
          CFI Resource D0:64, D1:64, D2:64, D3:64, D4:64, D5:64, D6:64, D7:64
          CFI Resource D8:64, D9:64, D10:64, D11:64, D12:64, D13:64, D14:64
          CFI Resource D15:64
          CFI EndNames cfiNames0
        
          CFI Common cfiCommon0 Using cfiNames0
          CFI CodeAlign 2
          CFI DataAlign 4
          CFI ReturnAddress R14 CODE
          CFI CFA R13+0
          CFI R0 Undefined
          CFI R1 Undefined
          CFI R2 Undefined
          CFI R3 Undefined
          CFI R4 SameValue
          CFI R5 SameValue
          CFI R6 SameValue
          CFI R7 SameValue
          CFI R8 SameValue
          CFI R9 SameValue
          CFI R10 SameValue
          CFI R11 SameValue
          CFI R12 Undefined
          CFI R14 SameValue
          CFI D0 Undefined
          CFI D1 Undefined
          CFI D2 Undefined
          CFI D3 Undefined
          CFI D4 Undefined
          CFI D5 Undefined
          CFI D6 Undefined
          CFI D7 Undefined
          CFI D8 SameValue
          CFI D9 SameValue
          CFI D10 SameValue
          CFI D11 SameValue
          CFI D12 SameValue
          CFI D13 SameValue
          CFI D14 SameValue
          CFI D15 SameValue
          CFI EndCommon cfiCommon0
        
// E:\znc\project\K60FN\network_car\Board\src\vcan_sd_app.c
//    1 #include "common.h"
//    2 #include "vcan_sd_app.h"
//    3 #include "ff.h"
//    4 #include "vcan_lcd.h"
//    5 
//    6 typedef struct
//    7 {
//    8     uint16  pic_w;  //图像宽度
//    9     uint16  pic_h;  //图像高度
//   10     uint32  pic_off;//图像偏移地址
//   11 }pic_t;
//   12 
//   13 
//   14 
//   15 typedef struct{
//   16     uint8   magic[2];       //文件识别：FP       vcan_pic
//   17     uint16  versions;       //版本
//   18     uint16  pic_num;        //图片总数
//   19     uint16  res;            //保留
//   20 
//   21     //pic_t   pic[0];         //数组数目由 pic_num 决定
//   22 
//   23     //后面就是图像数据，RGB565格式（直接刷入液晶）
//   24 }ui_pic_t;
//   25 
//   26 
//   27 #if (USE_UI_PIC == USE_UI_PIC_SD)
//   28 
//   29 // 内部 的全局变量 定义
//   30 static FATFS vcanfs;                        //文件系统
//   31 static FIL   vcansrc;                       //文件
//   32 static pic_t ui_pic_info[UI_NUM_MAX];       //图像信息
//   33 static uint8 pic_data[UI_PIC_MAX_W * 2];    //一行图像的数据
//   34 
//   35 uint8 ui_pic_init(void)
//   36 {
//   37     int         vcanres;
//   38     ui_pic_t    ui_pic;
//   39     uint32      br;
//   40 
//   41     f_mount(0, &vcanfs);
//   42 
//   43     //打开 图片固件 文件
//   44     vcanres = f_open( &vcansrc , "0:/pic.fp", FA_READ);
//   45     if(vcanres != FR_OK)
//   46     {
//   47         vcansrc.fs = 0;
//   48         return 0;
//   49     }
//   50     vcanres = f_read(&vcansrc,&ui_pic,sizeof(ui_pic_t),&br);
//   51     if(vcanres != FR_OK)
//   52     {
//   53         vcansrc.fs = 0;
//   54         return 0;
//   55     }
//   56 
//   57     ASSERT((ui_pic.magic[0] == 'F') && (ui_pic.magic[1] == 'P')  ); //断言，固件信息不对，确认 固件没错?
//   58     ASSERT(ui_pic.pic_num == UI_NUM_MAX);                           //断言，固件的 图像数据 必须 与 代码 配置一致
//   59 
//   60     //读取 图片 信息
//   61     vcanres = f_read(&vcansrc,&ui_pic_info,sizeof(pic_t)*UI_NUM_MAX,&br);
//   62     if(vcanres != FR_OK)
//   63     {
//   64         vcansrc.fs = 0;
//   65         return 0;
//   66     }
//   67 
//   68     return 1;
//   69 }
//   70 
//   71 void LCD_ui_pic(uint16 num,Site_t site)
//   72 {
//   73     uint32      br;
//   74     uint16      x,y;
//   75     uint16   *  pcolor;
//   76     uint16      rgb;
//   77 
//   78     if(vcansrc.fs )
//   79     {
//   80         ASSERT(num < UI_NUM_MAX);       //断言，图片编号 必须 小于 最大值
//   81 
//   82         //为了 快速，直接调用 lcd 底层
//   83 
//   84         LCD_PTLON(site,*(Size_t *)&ui_pic_info[num]);   //开窗
//   85         LCD_RAMWR();                                    //写内存
//   86 
//   87 
//   88         //读取图像数据
//   89         y = ui_pic_info[num].pic_h;                                     //图像高度
//   90         f_lseek(&vcansrc,ui_pic_info[num].pic_off);                     //跳到指定位置
//   91 
//   92         while(y--)
//   93         {
//   94             x = ui_pic_info[num].pic_w;
//   95             f_read(&vcansrc,&pic_data,ui_pic_info[num].pic_w * 2,&br);  //读 一行数据
//   96             pcolor = (uint16 *)pic_data;
//   97 
//   98             while(x--)
//   99             {
//  100                 rgb = *pcolor++;
//  101                 LCD_WR_DATA( rgb );          //写数据
//  102             }
//  103         }
//  104     }
//  105 }
//  106 
//  107 #elif (USE_UI_PIC == USE_UI_PIC_FLASH)
//  108 static const uint8 pic_buff[164896];    //图片数据，共11张图片。
//  109 

        SECTION `.data`:DATA:REORDER:NOROOT(2)
//  110 const pic_t * ui_pic_info  =    (const pic_t *)(&pic_buff[sizeof(ui_pic_t)]);
ui_pic_info:
        DATA
        DC32 pic_buff + 8H
//  111 
//  112 //

        SECTION `.text`:CODE:NOROOT(1)
          CFI Block cfiBlock0 Using cfiCommon0
          CFI Function ui_pic_init
          CFI NoCalls
        THUMB
//  113 uint8 ui_pic_init(void)
//  114 {
//  115     return 1;
ui_pic_init:
        MOVS     R0,#+1
        BX       LR               ;; return
          CFI EndBlock cfiBlock0
//  116 }
//  117 

        SECTION `.text`:CODE:NOROOT(1)
          CFI Block cfiBlock1 Using cfiCommon0
          CFI Function LCD_ui_pic
        THUMB
//  118 void LCD_ui_pic(uint16 num,Site_t site)
//  119 {
LCD_ui_pic:
        PUSH     {R3-R7,LR}
          CFI R14 Frame(CFA, -4)
          CFI R7 Frame(CFA, -8)
          CFI R6 Frame(CFA, -12)
          CFI R5 Frame(CFA, -16)
          CFI R4 Frame(CFA, -20)
          CFI CFA R13+24
        MOVS     R4,R0
        MOVS     R5,R1
//  120     uint16   *  pic_data;
//  121     uint32      size;
//  122     ASSERT(num < UI_NUM_MAX);       //断言，图片编号 必须 小于 最大值
        UXTH     R4,R4            ;; ZeroExt  R4,R4,#+16,#+16
        CMP      R4,#+11
        BLT.N    ??LCD_ui_pic_0
        MOVS     R1,#+122
        LDR.N    R0,??DataTable2
          CFI FunCall assert_failed
        BL       assert_failed
??LCD_ui_pic_0:
        LDR.N    R0,??DataTable2_1
        LDR      R0,[R0, #+0]
        UXTH     R4,R4            ;; ZeroExt  R4,R4,#+16,#+16
        LDR      R0,[R0, R4, LSL #+3]
        STR      R0,[SP, #+0]
//  123 
//  124     //为了 快速，直接调用 lcd 底层
//  125 
//  126     LCD_PTLON(site,*(Size_t *)&ui_pic_info[num]);   //开窗
        LDR      R1,[SP, #+0]
        MOVS     R0,R5
          CFI FunCall LCD_ST7735R_ptlon
        BL       LCD_ST7735R_ptlon
//  127     LCD_RAMWR();                                    //写内存
        MOVS     R0,#+1
        LDR.N    R1,??DataTable2_2  ;; 0x43fe1028
        STR      R0,[R1, #+0]
        MOVS     R0,#+0
        LDR.N    R1,??DataTable2_3  ;; 0x43fe1030
        STR      R0,[R1, #+0]
        MOVS     R0,#+0
        LDR.N    R1,??DataTable2_4  ;; 0x43fe102c
        STR      R0,[R1, #+0]
        MOVS     R0,#+44
        LDR.N    R1,??DataTable2_5  ;; 0x400ff080
        STRB     R0,[R1, #+0]
        MOVS     R0,#+0
        LDR.N    R1,??DataTable2_6  ;; 0x43fe1024
        STR      R0,[R1, #+0]
        MOVS     R0,#+1
        LDR.N    R1,??DataTable2_6  ;; 0x43fe1024
        STR      R0,[R1, #+0]
        MOVS     R0,#+1
        LDR.N    R1,??DataTable2_4  ;; 0x43fe102c
        STR      R0,[R1, #+0]
//  128 
//  129     //读取图像数据
//  130     size = ui_pic_info[num].pic_h * ui_pic_info[num].pic_w;
        LDR.N    R0,??DataTable2_1
        LDR      R0,[R0, #+0]
        UXTH     R4,R4            ;; ZeroExt  R4,R4,#+16,#+16
        ADDS     R0,R0,R4, LSL #+3
        LDRH     R0,[R0, #+2]
        LDR.N    R1,??DataTable2_1
        LDR      R1,[R1, #+0]
        UXTH     R4,R4            ;; ZeroExt  R4,R4,#+16,#+16
        LDRH     R1,[R1, R4, LSL #+3]
        MULS     R0,R1,R0
        MOVS     R7,R0
//  131 
//  132     pic_data = (uint16 *)(ui_pic_info[num].pic_off + (uint32)pic_buff);
        LDR.N    R0,??DataTable2_1
        LDR      R0,[R0, #+0]
        UXTH     R4,R4            ;; ZeroExt  R4,R4,#+16,#+16
        ADDS     R0,R0,R4, LSL #+3
        LDR      R0,[R0, #+4]
        LDR.N    R1,??DataTable2_7
        ADDS     R0,R1,R0
        MOVS     R6,R0
//  133 
//  134     while(size--)
??LCD_ui_pic_1:
        MOVS     R0,R7
        SUBS     R7,R0,#+1
        CMP      R0,#+0
        BEQ.N    ??LCD_ui_pic_2
//  135     {
//  136         LCD_WR_DATA( *pic_data );          //写数据
        MOVS     R0,#+1
        LDR.N    R1,??DataTable2_2  ;; 0x43fe1028
        STR      R0,[R1, #+0]
        MOVS     R0,#+1
        LDR.N    R1,??DataTable2_3  ;; 0x43fe1030
        STR      R0,[R1, #+0]
        MOVS     R0,#+0
        LDR.N    R1,??DataTable2_4  ;; 0x43fe102c
        STR      R0,[R1, #+0]
        LDRH     R0,[R6, #+0]
        UXTH     R0,R0            ;; ZeroExt  R0,R0,#+16,#+16
        LSRS     R0,R0,#+8
        LDR.N    R1,??DataTable2_5  ;; 0x400ff080
        STRB     R0,[R1, #+0]
        MOVS     R0,#+0
        LDR.N    R1,??DataTable2_6  ;; 0x43fe1024
        STR      R0,[R1, #+0]
        MOVS     R0,#+1
        LDR.N    R1,??DataTable2_6  ;; 0x43fe1024
        STR      R0,[R1, #+0]
        MOVS     R0,#+1
        LDR.N    R1,??DataTable2_4  ;; 0x43fe102c
        STR      R0,[R1, #+0]
        MOVS     R0,#+1
        LDR.N    R1,??DataTable2_2  ;; 0x43fe1028
        STR      R0,[R1, #+0]
        MOVS     R0,#+1
        LDR.N    R1,??DataTable2_3  ;; 0x43fe1030
        STR      R0,[R1, #+0]
        MOVS     R0,#+0
        LDR.N    R1,??DataTable2_4  ;; 0x43fe102c
        STR      R0,[R1, #+0]
        LDRH     R0,[R6, #+0]
        LDR.N    R1,??DataTable2_5  ;; 0x400ff080
        STRB     R0,[R1, #+0]
        MOVS     R0,#+0
        LDR.N    R1,??DataTable2_6  ;; 0x43fe1024
        STR      R0,[R1, #+0]
        MOVS     R0,#+1
        LDR.N    R1,??DataTable2_6  ;; 0x43fe1024
        STR      R0,[R1, #+0]
        MOVS     R0,#+1
        LDR.N    R1,??DataTable2_4  ;; 0x43fe102c
        STR      R0,[R1, #+0]
//  137         pic_data++;
        ADDS     R6,R6,#+2
        B.N      ??LCD_ui_pic_1
//  138     }
//  139 
//  140 }
??LCD_ui_pic_2:
        POP      {R0,R4-R7,PC}    ;; return
          CFI EndBlock cfiBlock1
//  141 #endif
//  142 
//  143 /////////////////// 下面代码用于 实现 计时器 界面 /////////////////////////////////////
//  144 #define PIC_BG_SITE         {0,0}
//  145 #define TIME_DS_SITE        {66,115}        //十秒位
//  146 #define TIME_S_SITE         {96,115}        //秒位
//  147 #define TIME_HMS_SITE       {176,115}       //百毫秒位
//  148 #define TIME_DMS_SITE       {206,115}       //十毫秒位
//  149 #define TIME_MS_SITE        {236,115}       //毫秒位
//  150 
//  151 

        SECTION `.text`:CODE:NOROOT(1)
          CFI Block cfiBlock2 Using cfiCommon0
          CFI Function LCD_ui_time_init
        THUMB
//  152 void LCD_ui_time_init(void)
//  153 {
LCD_ui_time_init:
        PUSH     {R4,LR}
          CFI R14 Frame(CFA, -4)
          CFI R4 Frame(CFA, -8)
          CFI CFA R13+8
//  154     Site_t site =   PIC_BG_SITE ;
        LDR.N    R0,??DataTable2_8
        LDR      R4,[R0, #+0]
//  155 
//  156     LCD_INIT();                             //初始化LCD
          CFI FunCall LCD_ST7735R_init
        BL       LCD_ST7735R_init
//  157 
//  158     ui_pic_init();
          CFI FunCall ui_pic_init
        BL       ui_pic_init
//  159 
//  160     LCD_ui_pic(UI_PIC_BG,site);
        MOVS     R1,R4
        MOVS     R0,#+10
          CFI FunCall LCD_ui_pic
        BL       LCD_ui_pic
//  161 }
        POP      {R4,PC}          ;; return
          CFI EndBlock cfiBlock2
//  162 

        SECTION `.text`:CODE:NOROOT(1)
          CFI Block cfiBlock3 Using cfiCommon0
          CFI Function LCD_ui_time
        THUMB
//  163 void LCD_ui_time(uint16 ms)
//  164 {
LCD_ui_time:
        PUSH     {R4-R6,LR}
          CFI R14 Frame(CFA, -4)
          CFI R6 Frame(CFA, -8)
          CFI R5 Frame(CFA, -12)
          CFI R4 Frame(CFA, -16)
          CFI CFA R13+16
        SUB      SP,SP,#+8
          CFI CFA R13+24
        MOVS     R6,R0
//  165     static uint8    time[5] = {0,0,0,0,0};
//  166     static Site_t   site[5] = {TIME_MS_SITE,TIME_DMS_SITE,TIME_HMS_SITE,TIME_S_SITE,TIME_DS_SITE};
//  167     uint8  i,n=0;
        MOVS     R5,#+0
//  168 
//  169     while(n<5)
??LCD_ui_time_0:
        UXTB     R5,R5            ;; ZeroExt  R5,R5,#+24,#+24
        CMP      R5,#+5
        BGE.N    ??LCD_ui_time_1
//  170     {
//  171         //个位
//  172         i = ms % 10;
        UXTH     R6,R6            ;; ZeroExt  R6,R6,#+16,#+16
        MOVS     R0,#+10
        SDIV     R1,R6,R0
        MLS      R0,R0,R1,R6
        MOVS     R4,R0
//  173         ms /= 10;
        UXTH     R6,R6            ;; ZeroExt  R6,R6,#+16,#+16
        MOVS     R0,#+10
        SDIV     R6,R6,R0
//  174         if(i != time[n])
        LDR.N    R0,??DataTable2_9
        UXTB     R5,R5            ;; ZeroExt  R5,R5,#+24,#+24
        LDRB     R0,[R5, R0]
        UXTB     R4,R4            ;; ZeroExt  R4,R4,#+24,#+24
        CMP      R4,R0
        BEQ.N    ??LCD_ui_time_2
//  175         {
//  176             time[n] = i;
        LDR.N    R0,??DataTable2_9
        UXTB     R5,R5            ;; ZeroExt  R5,R5,#+24,#+24
        STRB     R4,[R5, R0]
        LDR.N    R0,??DataTable2_10
        UXTB     R5,R5            ;; ZeroExt  R5,R5,#+24,#+24
        LDR      R0,[R0, R5, LSL #+2]
        STR      R0,[SP, #+0]
//  177             LCD_ui_pic(i,site[n]);
        LDR      R1,[SP, #+0]
        UXTB     R4,R4            ;; ZeroExt  R4,R4,#+24,#+24
        MOVS     R0,R4
        UXTH     R0,R0            ;; ZeroExt  R0,R0,#+16,#+16
          CFI FunCall LCD_ui_pic
        BL       LCD_ui_pic
//  178         }
//  179         n++;
??LCD_ui_time_2:
        ADDS     R5,R5,#+1
        B.N      ??LCD_ui_time_0
//  180     }
//  181 
//  182 }
??LCD_ui_time_1:
        POP      {R0,R1,R4-R6,PC}  ;; return
          CFI EndBlock cfiBlock3

        SECTION `.text`:CODE:NOROOT(2)
        SECTION_TYPE SHT_PROGBITS, 0
        DATA
??DataTable2:
        DC32     ?_0

        SECTION `.text`:CODE:NOROOT(2)
        SECTION_TYPE SHT_PROGBITS, 0
        DATA
??DataTable2_1:
        DC32     ui_pic_info

        SECTION `.text`:CODE:NOROOT(2)
        SECTION_TYPE SHT_PROGBITS, 0
        DATA
??DataTable2_2:
        DC32     0x43fe1028

        SECTION `.text`:CODE:NOROOT(2)
        SECTION_TYPE SHT_PROGBITS, 0
        DATA
??DataTable2_3:
        DC32     0x43fe1030

        SECTION `.text`:CODE:NOROOT(2)
        SECTION_TYPE SHT_PROGBITS, 0
        DATA
??DataTable2_4:
        DC32     0x43fe102c

        SECTION `.text`:CODE:NOROOT(2)
        SECTION_TYPE SHT_PROGBITS, 0
        DATA
??DataTable2_5:
        DC32     0x400ff080

        SECTION `.text`:CODE:NOROOT(2)
        SECTION_TYPE SHT_PROGBITS, 0
        DATA
??DataTable2_6:
        DC32     0x43fe1024

        SECTION `.text`:CODE:NOROOT(2)
        SECTION_TYPE SHT_PROGBITS, 0
        DATA
??DataTable2_7:
        DC32     pic_buff

        SECTION `.text`:CODE:NOROOT(2)
        SECTION_TYPE SHT_PROGBITS, 0
        DATA
??DataTable2_8:
        DC32     ?_1

        SECTION `.text`:CODE:NOROOT(2)
        SECTION_TYPE SHT_PROGBITS, 0
        DATA
??DataTable2_9:
        DC32     ??time

        SECTION `.text`:CODE:NOROOT(2)
        SECTION_TYPE SHT_PROGBITS, 0
        DATA
??DataTable2_10:
        DC32     ??site

        SECTION `.bss`:DATA:REORDER:NOROOT(2)
??time:
        DS8 8

        SECTION `.data`:DATA:REORDER:NOROOT(2)
??site:
        DATA
        DC16 236, 115, 206, 115, 176, 115, 96, 115, 66, 115

        SECTION `.rodata`:CONST:REORDER:NOROOT(2)
?_0:
        DATA
        DC8 45H, 3AH, 5CH, 7AH, 6EH, 63H, 5CH, 70H
        DC8 72H, 6FH, 6AH, 65H, 63H, 74H, 5CH, 4BH
        DC8 36H, 30H, 46H, 4EH, 5CH, 6EH, 65H, 74H
        DC8 77H, 6FH, 72H, 6BH, 5FH, 63H, 61H, 72H
        DC8 5CH, 42H, 6FH, 61H, 72H, 64H, 5CH, 73H
        DC8 72H, 63H, 5CH, 76H, 63H, 61H, 6EH, 5FH
        DC8 73H, 64H, 5FH, 61H, 70H, 70H, 2EH, 63H
        DC8 0
        DC8 0, 0, 0

        SECTION `.rodata`:CONST:REORDER:NOROOT(2)
?_1:
        DATA
        DC16 0, 0
//  183 
//  184 
//  185 #if (USE_UI_PIC == USE_UI_PIC_FLASH)
//  186 //C文件内容如下:

        SECTION `.rodata`:CONST:REORDER:NOROOT(2)
//  187 const uint8 pic_buff[164896]= {
pic_buff:
        DATA
        DC8 70, 80, 48, 49, 11, 0, 0, 0, 20, 0, 28, 0, 96, 0, 0, 0, 20, 0, 28
        DC8 0, 192, 4, 0, 0, 20, 0, 28, 0, 32, 9, 0, 0, 20, 0, 28, 0, 128, 13
        DC8 0, 0, 20, 0, 28, 0, 224, 17, 0, 0, 20, 0, 28, 0, 64, 22, 0, 0, 20
        DC8 0, 28, 0, 160, 26, 0, 0, 20, 0, 28, 0, 0, 31, 0, 0, 20, 0, 28, 0
        DC8 96, 35, 0, 0, 20, 0, 28, 0, 192, 39, 0, 0, 64, 1, 240, 0, 32, 44, 0
        DC8 0, 174, 115, 174, 115, 174, 115, 174, 115, 174, 115, 109, 107, 235
        DC8 90, 73, 74, 199, 57, 101, 41, 101, 41, 101, 41, 166, 49, 40, 66
        DC8 170, 82, 77, 107, 142, 115, 174, 115, 174, 115, 174, 115, 142, 115
        DC8 142, 115, 142, 115, 142, 115, 44, 99, 73, 74, 134, 49, 48, 132, 154
        DC8 214, 255, 255, 255, 255, 255, 255, 125, 239, 48, 132, 73, 74, 40
        DC8 66, 235, 90, 109, 107, 142, 115, 142, 115, 142, 115, 142, 115, 109
        DC8 107, 44, 99, 40, 66, 109, 107, 125, 239, 255, 255, 255, 255, 255
        DC8 255, 255, 255, 255, 255, 255, 255, 255, 255, 255, 255, 178, 148, 8
        DC8 66, 235, 90, 109, 107, 142, 115, 142, 115, 142, 115, 77, 107, 138
        DC8 82, 239, 123, 255, 255, 255, 255, 255, 255, 255, 255, 255, 255, 255
        DC8 255, 255, 255, 255, 255, 255, 255, 255, 255, 255, 255, 52, 165, 40
        DC8 66, 12, 99, 109, 107, 109, 107, 109, 107, 235, 90, 138, 82, 255
        DC8 255, 255, 255, 255, 255, 255, 255, 255, 255, 255, 255, 255, 255
        DC8 255, 255, 255, 255, 255, 255, 255, 255, 255, 255, 255, 255, 113
        DC8 140, 138, 82, 77, 107, 109, 107, 44, 99, 105, 74, 56, 198, 255, 255
        DC8 255, 255, 255, 255, 255, 255, 56, 198, 207, 123, 77, 107, 77, 107
        DC8 52, 165, 255, 255, 255, 255, 255, 255, 255, 255, 255, 255, 170, 82
        DC8 235, 90, 77, 107, 235, 90, 170, 82, 255, 255, 255, 255, 255, 255
        DC8 255, 255, 121, 206, 12, 99, 77, 107, 77, 107, 77, 107, 44, 99, 20
        DC8 165, 255, 255, 255, 255, 255, 255, 255, 255, 211, 156, 138, 82, 44
        DC8 99, 170, 82, 113, 140, 255, 255, 255, 255, 255, 255, 255, 255, 81
        DC8 140, 44, 99, 44, 99, 44, 99, 44, 99, 44, 99, 203, 90, 158, 247, 255
        DC8 255, 255, 255, 255, 255, 125, 239, 73, 74, 44, 99, 138, 82, 154
        DC8 214, 255, 255, 255, 255, 255, 255, 158, 247, 170, 82, 44, 99, 44
        DC8 99, 44, 99, 44, 99, 44, 99, 235, 90, 52, 165, 255, 255, 255, 255
        DC8 255, 255, 255, 255, 44, 99, 12, 99, 73, 74, 125, 239, 255, 255, 255
        DC8 255, 255, 255, 186, 214, 170, 82, 44, 99, 44, 99, 44, 99, 44, 99
        DC8 44, 99, 235, 90, 211, 156, 255, 255, 255, 255, 255, 255, 255, 255
        DC8 239, 123, 235, 90, 235, 90, 255, 255, 255, 255, 255, 255, 255, 255
        DC8 215, 189, 170, 82, 12, 99, 12, 99, 12, 99, 12, 99, 12, 99, 235, 90
        DC8 174, 115, 255, 255, 255, 255, 255, 255, 255, 255, 146, 148, 203, 90
        DC8 44, 99, 255, 255, 255, 255, 255, 255, 255, 255, 20, 165, 170, 82
        DC8 12, 99, 12, 99, 12, 99, 12, 99, 12, 99, 235, 90, 77, 107, 255, 255
        DC8 255, 255, 255, 255, 255, 255, 117, 173, 203, 90, 142, 115, 255, 255
        DC8 255, 255, 255, 255, 255, 255, 146, 148, 170, 82, 235, 90, 235, 90
        DC8 235, 90, 235, 90, 235, 90, 203, 90, 235, 90, 255, 255, 255, 255
        DC8 255, 255, 255, 255, 85, 173, 170, 82, 142, 115, 255, 255, 255, 255
        DC8 255, 255, 255, 255, 146, 148, 138, 82, 235, 90, 235, 90, 235, 90
        DC8 235, 90, 235, 90, 203, 90, 235, 90, 255, 255, 255, 255, 255, 255
        DC8 255, 255, 85, 173, 170, 82, 239, 123, 255, 255, 255, 255, 255, 255
        DC8 255, 255, 146, 148, 138, 82, 235, 90, 235, 90, 235, 90, 235, 90
        DC8 235, 90, 203, 90, 203, 90, 255, 255, 255, 255, 255, 255, 255, 255
        DC8 215, 189, 199, 57, 8, 66, 12, 99, 12, 99, 12, 99, 12, 99, 73, 74
        DC8 199, 57, 199, 57, 199, 57, 199, 57, 199, 57, 199, 57, 166, 49, 166
        DC8 49, 231, 57, 231, 57, 231, 57, 231, 57, 199, 57, 178, 148, 211, 156
        DC8 190, 247, 190, 247, 190, 247, 190, 247, 215, 189, 48, 132, 178, 148
        DC8 178, 148, 178, 148, 178, 148, 178, 148, 178, 148, 20, 165, 190, 247
        DC8 190, 247, 190, 247, 190, 247, 56, 198, 109, 107, 77, 107, 158, 247
        DC8 158, 247, 158, 247, 158, 247, 150, 181, 203, 90, 109, 107, 109, 107
        DC8 109, 107, 109, 107, 109, 107, 12, 99, 239, 123, 158, 247, 158, 247
        DC8 158, 247, 158, 247, 178, 148, 142, 115, 235, 90, 28, 231, 125, 239
        DC8 125, 239, 125, 239, 56, 198, 170, 82, 109, 107, 142, 115, 142, 115
        DC8 142, 115, 142, 115, 12, 99, 113, 140, 125, 239, 125, 239, 125, 239
        DC8 125, 239, 113, 140, 109, 107, 12, 99, 56, 198, 93, 239, 93, 239, 93
        DC8 239, 93, 239, 105, 74, 44, 99, 109, 107, 109, 107, 109, 107, 77
        DC8 107, 170, 82, 113, 140, 93, 239, 93, 239, 93, 239, 93, 239, 142
        DC8 115, 77, 107, 44, 99, 146, 148, 28, 231, 28, 231, 28, 231, 28, 231
        DC8 77, 107, 138, 82, 44, 99, 77, 107, 77, 107, 203, 90, 231, 57, 154
        DC8 214, 28, 231, 28, 231, 28, 231, 89, 206, 12, 99, 77, 107, 77, 107
        DC8 44, 99, 251, 222, 251, 222, 251, 222, 251, 222, 150, 181, 166, 49
        DC8 73, 74, 138, 82, 105, 74, 231, 57, 207, 123, 251, 222, 251, 222
        DC8 251, 222, 251, 222, 146, 148, 77, 107, 77, 107, 77, 107, 44, 99
        DC8 178, 148, 186, 214, 186, 214, 186, 214, 186, 214, 20, 165, 199, 57
        DC8 36, 33, 36, 33, 142, 115, 186, 214, 186, 214, 186, 214, 186, 214
        DC8 24, 198, 12, 99, 77, 107, 44, 99, 44, 99, 44, 99, 44, 99, 247, 189
        DC8 154, 214, 154, 214, 154, 214, 154, 214, 154, 214, 154, 214, 154
        DC8 214, 154, 214, 154, 214, 154, 214, 154, 214, 154, 214, 239, 123, 12
        DC8 99, 44, 99, 44, 99, 44, 99, 44, 99, 12, 99, 142, 115, 24, 198, 89
        DC8 206, 89, 206, 89, 206, 89, 206, 89, 206, 89, 206, 89, 206, 89, 206
        DC8 89, 206, 89, 206, 81, 140, 12, 99, 44, 99, 44, 99, 12, 99, 12, 99
        DC8 12, 99, 12, 99, 12, 99, 77, 107, 117, 173, 56, 198, 56, 198, 56
        DC8 198, 56, 198, 56, 198, 56, 198, 56, 198, 56, 198, 207, 123, 12, 99
        DC8 12, 99, 12, 99, 12, 99, 12, 99, 12, 99, 12, 99, 12, 99, 12, 99, 12
        DC8 99, 235, 90, 207, 123, 178, 148, 24, 198, 24, 198, 24, 198, 150
        DC8 181, 48, 132, 12, 99, 235, 90, 12, 99, 12, 99, 12, 99, 12, 99, 235
        DC8 90, 235, 90, 235, 90, 235, 90, 235, 90, 235, 90, 235, 90, 235, 90
        DC8 235, 90, 235, 90, 235, 90, 235, 90, 235, 90, 235, 90, 235, 90, 235
        DC8 90, 235, 90, 235, 90, 235, 90, 235, 90, 174, 115, 174, 115, 174
        DC8 115, 174, 115, 174, 115, 174, 115, 174, 115, 174, 115, 174, 115
        DC8 174, 115, 77, 107, 105, 74, 166, 49, 199, 57, 170, 82, 109, 107
        DC8 174, 115, 174, 115, 174, 115, 174, 115, 142, 115, 142, 115, 142
        DC8 115, 142, 115, 142, 115, 142, 115, 142, 115, 142, 115, 142, 115, 77
        DC8 107, 105, 74, 239, 123, 255, 255, 125, 239, 12, 99, 12, 99, 142
        DC8 115, 142, 115, 142, 115, 142, 115, 142, 115, 142, 115, 142, 115
        DC8 142, 115, 142, 115, 142, 115, 142, 115, 142, 115, 77, 107, 170, 82
        DC8 203, 90, 255, 255, 255, 255, 255, 255, 154, 214, 203, 90, 142, 115
        DC8 142, 115, 142, 115, 142, 115, 142, 115, 142, 115, 142, 115, 142
        DC8 115, 142, 115, 142, 115, 142, 115, 77, 107, 203, 90, 40, 66, 251
        DC8 222, 255, 255, 255, 255, 255, 255, 158, 247, 203, 90, 142, 115, 142
        DC8 115, 142, 115, 142, 115, 109, 107, 109, 107, 109, 107, 109, 107
        DC8 109, 107, 109, 107, 44, 99, 170, 82, 166, 49, 24, 198, 255, 255
        DC8 255, 255, 255, 255, 255, 255, 255, 255, 203, 90, 109, 107, 109, 107
        DC8 109, 107, 109, 107, 109, 107, 109, 107, 109, 107, 77, 107, 44, 99
        DC8 203, 90, 40, 66, 231, 57, 24, 198, 255, 255, 255, 255, 255, 255
        DC8 255, 255, 255, 255, 255, 255, 170, 82, 109, 107, 109, 107, 109, 107
        DC8 109, 107, 77, 107, 44, 99, 12, 99, 170, 82, 40, 66, 166, 49, 235
        DC8 90, 251, 222, 255, 255, 255, 255, 255, 255, 255, 255, 255, 255, 255
        DC8 255, 255, 255, 138, 82, 77, 107, 77, 107, 77, 107, 77, 107, 44, 99
        DC8 12, 99, 105, 74, 166, 49, 235, 90, 247, 189, 255, 255, 255, 255
        DC8 255, 255, 255, 255, 255, 255, 255, 255, 255, 255, 255, 255, 255
        DC8 255, 138, 82, 44, 99, 44, 99, 44, 99, 44, 99, 44, 99, 203, 90, 170
        DC8 82, 150, 181, 255, 255, 255, 255, 255, 255, 255, 255, 255, 255, 255
        DC8 255, 255, 255, 255, 255, 255, 255, 255, 255, 255, 255, 138, 82, 44
        DC8 99, 44, 99, 44, 99, 44, 99, 44, 99, 203, 90, 215, 189, 255, 255
        DC8 255, 255, 255, 255, 255, 255, 255, 255, 255, 255, 113, 140, 28, 231
        DC8 255, 255, 255, 255, 255, 255, 255, 255, 105, 74, 44, 99, 44, 99, 44
        DC8 99, 44, 99, 12, 99, 235, 90, 24, 198, 255, 255, 255, 255, 255, 255
        DC8 255, 255, 56, 198, 142, 115, 105, 74, 28, 231, 255, 255, 255, 255
        DC8 255, 255, 255, 255, 105, 74, 12, 99, 12, 99, 12, 99, 12, 99, 12, 99
        DC8 235, 90, 109, 107, 60, 231, 255, 255, 215, 189, 207, 123, 235, 90
        DC8 12, 99, 105, 74, 28, 231, 255, 255, 255, 255, 255, 255, 255, 255
        DC8 105, 74, 12, 99, 12, 99, 12, 99, 12, 99, 235, 90, 235, 90, 235, 90
        DC8 235, 90, 235, 90, 235, 90, 235, 90, 235, 90, 235, 90, 105, 74, 28
        DC8 231, 255, 255, 255, 255, 255, 255, 255, 255, 73, 74, 235, 90, 235
        DC8 90, 235, 90, 235, 90, 235, 90, 235, 90, 235, 90, 235, 90, 235, 90
        DC8 235, 90, 235, 90, 235, 90, 235, 90, 105, 74, 28, 231, 255, 255, 255
        DC8 255, 255, 255, 255, 255, 73, 74, 235, 90, 235, 90, 235, 90, 235, 90
        DC8 235, 90, 235, 90, 235, 90, 235, 90, 235, 90, 235, 90, 235, 90, 235
        DC8 90, 235, 90, 73, 74, 28, 231, 255, 255, 255, 255, 255, 255, 255
        DC8 255, 73, 74, 235, 90, 235, 90, 235, 90, 235, 90, 199, 57, 199, 57
        DC8 199, 57, 199, 57, 199, 57, 199, 57, 199, 57, 199, 57, 199, 57, 166
        DC8 49, 203, 90, 12, 99, 138, 82, 231, 57, 231, 57, 166, 49, 166, 49
        DC8 166, 49, 166, 49, 166, 49, 178, 148, 178, 148, 178, 148, 178, 148
        DC8 178, 148, 178, 148, 178, 148, 178, 148, 178, 148, 16, 132, 28, 231
        DC8 190, 247, 190, 247, 190, 247, 190, 247, 146, 148, 52, 165, 52, 165
        DC8 52, 165, 52, 165, 109, 107, 109, 107, 109, 107, 109, 107, 109, 107
        DC8 109, 107, 109, 107, 109, 107, 109, 107, 203, 90, 186, 214, 158, 247
        DC8 158, 247, 158, 247, 158, 247, 170, 82, 109, 107, 109, 107, 109, 107
        DC8 109, 107, 142, 115, 142, 115, 142, 115, 142, 115, 142, 115, 142
        DC8 115, 142, 115, 142, 115, 142, 115, 235, 90, 154, 214, 125, 239, 125
        DC8 239, 125, 239, 125, 239, 203, 90, 142, 115, 142, 115, 142, 115, 142
        DC8 115, 109, 107, 109, 107, 109, 107, 109, 107, 109, 107, 109, 107
        DC8 109, 107, 109, 107, 109, 107, 203, 90, 121, 206, 93, 239, 93, 239
        DC8 93, 239, 93, 239, 170, 82, 109, 107, 109, 107, 109, 107, 109, 107
        DC8 77, 107, 77, 107, 77, 107, 77, 107, 77, 107, 77, 107, 77, 107, 77
        DC8 107, 77, 107, 170, 82, 89, 206, 28, 231, 28, 231, 28, 231, 28, 231
        DC8 170, 82, 77, 107, 77, 107, 77, 107, 77, 107, 77, 107, 77, 107, 77
        DC8 107, 77, 107, 77, 107, 77, 107, 77, 107, 77, 107, 77, 107, 170, 82
        DC8 56, 198, 251, 222, 251, 222, 251, 222, 251, 222, 170, 82, 77, 107
        DC8 77, 107, 77, 107, 77, 107, 77, 107, 77, 107, 77, 107, 77, 107, 77
        DC8 107, 77, 107, 77, 107, 77, 107, 77, 107, 170, 82, 247, 189, 186
        DC8 214, 186, 214, 186, 214, 186, 214, 170, 82, 77, 107, 77, 107, 77
        DC8 107, 77, 107, 44, 99, 44, 99, 44, 99, 44, 99, 44, 99, 44, 99, 44
        DC8 99, 44, 99, 44, 99, 138, 82, 215, 189, 154, 214, 154, 214, 154, 214
        DC8 56, 198, 138, 82, 44, 99, 44, 99, 44, 99, 44, 99, 44, 99, 44, 99
        DC8 44, 99, 44, 99, 44, 99, 44, 99, 44, 99, 44, 99, 44, 99, 170, 82
        DC8 182, 181, 89, 206, 89, 206, 89, 206, 182, 181, 203, 90, 44, 99, 44
        DC8 99, 44, 99, 44, 99, 12, 99, 12, 99, 12, 99, 12, 99, 12, 99, 12, 99
        DC8 12, 99, 12, 99, 12, 99, 235, 90, 211, 156, 56, 198, 56, 198, 56
        DC8 198, 146, 148, 235, 90, 12, 99, 12, 99, 12, 99, 12, 99, 12, 99, 12
        DC8 99, 12, 99, 12, 99, 12, 99, 12, 99, 12, 99, 12, 99, 12, 99, 235, 90
        DC8 44, 99, 85, 173, 24, 198, 85, 173, 44, 99, 235, 90, 12, 99, 12, 99
        DC8 12, 99, 12, 99, 235, 90, 235, 90, 235, 90, 235, 90, 235, 90, 235
        DC8 90, 235, 90, 235, 90, 235, 90, 235, 90, 235, 90, 235, 90, 235, 90
        DC8 235, 90, 235, 90, 235, 90, 235, 90, 235, 90, 235, 90, 235, 90, 174
        DC8 115, 174, 115, 174, 115, 142, 115, 77, 107, 203, 90, 73, 74, 199
        DC8 57, 101, 41, 101, 41, 101, 41, 134, 49, 231, 57, 73, 74, 235, 90
        DC8 77, 107, 174, 115, 174, 115, 174, 115, 174, 115, 142, 115, 142, 115
        DC8 109, 107, 235, 90, 40, 66, 199, 57, 48, 132, 154, 214, 255, 255
        DC8 255, 255, 255, 255, 255, 255, 150, 181, 48, 132, 134, 49, 73, 74
        DC8 12, 99, 109, 107, 142, 115, 142, 115, 142, 115, 109, 107, 235, 90
        DC8 231, 57, 48, 132, 255, 255, 255, 255, 255, 255, 255, 255, 255, 255
        DC8 255, 255, 255, 255, 255, 255, 255, 255, 255, 255, 207, 123, 8, 66
        DC8 235, 90, 109, 107, 142, 115, 109, 107, 12, 99, 8, 66, 24, 198, 255
        DC8 255, 255, 255, 255, 255, 255, 255, 255, 255, 255, 255, 255, 255
        DC8 255, 255, 255, 255, 255, 255, 255, 255, 255, 255, 52, 165, 73, 74
        DC8 44, 99, 142, 115, 77, 107, 138, 82, 211, 156, 255, 255, 255, 255
        DC8 255, 255, 255, 255, 255, 255, 255, 255, 255, 255, 255, 255, 255
        DC8 255, 255, 255, 255, 255, 255, 255, 255, 255, 255, 255, 16, 132, 203
        DC8 90, 109, 107, 12, 99, 12, 99, 255, 255, 255, 255, 255, 255, 255
        DC8 255, 255, 255, 215, 189, 207, 123, 77, 107, 77, 107, 243, 156, 158
        DC8 247, 255, 255, 255, 255, 255, 255, 255, 255, 28, 231, 73, 74, 44
        DC8 99, 170, 82, 243, 156, 255, 255, 255, 255, 255, 255, 255, 255, 117
        DC8 173, 44, 99, 77, 107, 77, 107, 77, 107, 44, 99, 109, 107, 158, 247
        DC8 255, 255, 255, 255, 255, 255, 255, 255, 239, 123, 235, 90, 138, 82
        DC8 154, 214, 255, 255, 255, 255, 255, 255, 28, 231, 203, 90, 44, 99
        DC8 44, 99, 44, 99, 44, 99, 44, 99, 235, 90, 211, 156, 255, 255, 255
        DC8 255, 255, 255, 255, 255, 178, 148, 203, 90, 170, 82, 158, 247, 255
        DC8 255, 255, 255, 255, 255, 243, 156, 12, 99, 44, 99, 44, 99, 44, 99
        DC8 44, 99, 44, 99, 235, 90, 142, 115, 255, 255, 255, 255, 255, 255
        DC8 255, 255, 52, 165, 235, 90, 235, 90, 219, 222, 255, 255, 255, 255
        DC8 255, 255, 109, 107, 12, 99, 44, 99, 44, 99, 44, 99, 44, 99, 12, 99
        DC8 170, 82, 207, 123, 255, 255, 255, 255, 255, 255, 255, 255, 211, 156
        DC8 235, 90, 12, 99, 207, 123, 154, 214, 60, 231, 146, 148, 12, 99, 12
        DC8 99, 12, 99, 12, 99, 12, 99, 12, 99, 235, 90, 40, 66, 178, 148, 255
        DC8 255, 255, 255, 255, 255, 255, 255, 48, 132, 235, 90, 12, 99, 12, 99
        DC8 12, 99, 12, 99, 12, 99, 12, 99, 12, 99, 12, 99, 12, 99, 12, 99, 203
        DC8 90, 73, 74, 73, 74, 125, 239, 255, 255, 255, 255, 255, 255, 158
        DC8 247, 12, 99, 235, 90, 235, 90, 235, 90, 235, 90, 235, 90, 235, 90
        DC8 235, 90, 235, 90, 235, 90, 235, 90, 203, 90, 73, 74, 134, 49, 24
        DC8 198, 255, 255, 255, 255, 255, 255, 255, 255, 243, 156, 203, 90, 235
        DC8 90, 235, 90, 235, 90, 235, 90, 235, 90, 235, 90, 235, 90, 235, 90
        DC8 203, 90, 170, 82, 40, 66, 101, 41, 24, 198, 255, 255, 255, 255, 255
        DC8 255, 255, 255, 219, 222, 170, 82, 235, 90, 235, 90, 235, 90, 235
        DC8 90, 235, 90, 235, 90, 235, 90, 235, 90, 203, 90, 138, 82, 231, 57
        DC8 8, 66, 24, 198, 255, 255, 255, 255, 255, 255, 255, 255, 158, 247
        DC8 77, 107, 203, 90, 235, 90, 235, 90, 199, 57, 199, 57, 199, 57, 199
        DC8 57, 199, 57, 199, 57, 199, 57, 166, 49, 231, 57, 203, 90, 12, 99
        DC8 138, 82, 231, 57, 231, 57, 231, 57, 199, 57, 166, 49, 166, 49, 166
        DC8 49, 166, 49, 178, 148, 178, 148, 178, 148, 178, 148, 178, 148, 48
        DC8 132, 77, 107, 113, 140, 190, 247, 190, 247, 190, 247, 190, 247, 190
        DC8 247, 28, 231, 85, 173, 52, 165, 52, 165, 52, 165, 52, 165, 52, 165
        DC8 109, 107, 109, 107, 109, 107, 77, 107, 203, 90, 231, 57, 16, 132
        DC8 158, 247, 158, 247, 158, 247, 158, 247, 158, 247, 247, 189, 77, 107
        DC8 109, 107, 109, 107, 109, 107, 109, 107, 109, 107, 109, 107, 142
        DC8 115, 142, 115, 109, 107, 235, 90, 231, 57, 113, 140, 125, 239, 125
        DC8 239, 125, 239, 125, 239, 125, 239, 20, 165, 109, 107, 142, 115, 142
        DC8 115, 142, 115, 142, 115, 142, 115, 142, 115, 142, 115, 109, 107, 77
        DC8 107, 203, 90, 231, 57, 178, 148, 93, 239, 93, 239, 93, 239, 93, 239
        DC8 93, 239, 113, 140, 77, 107, 109, 107, 109, 107, 109, 107, 109, 107
        DC8 109, 107, 109, 107, 109, 107, 109, 107, 77, 107, 235, 90, 231, 57
        DC8 146, 148, 28, 231, 28, 231, 28, 231, 28, 231, 28, 231, 16, 132, 77
        DC8 107, 77, 107, 77, 107, 77, 107, 77, 107, 77, 107, 77, 107, 77, 107
        DC8 77, 107, 77, 107, 12, 99, 73, 74, 48, 132, 251, 222, 251, 222, 251
        DC8 222, 251, 222, 251, 222, 109, 107, 138, 82, 170, 82, 170, 82, 170
        DC8 82, 170, 82, 170, 82, 170, 82, 170, 82, 203, 90, 12, 99, 77, 107
        DC8 203, 90, 235, 90, 186, 214, 186, 214, 186, 214, 186, 214, 186, 214
        DC8 142, 115, 36, 33, 69, 41, 69, 41, 69, 41, 69, 41, 69, 41, 69, 41
        DC8 69, 41, 69, 41, 134, 49, 73, 74, 12, 99, 138, 82, 20, 165, 154, 214
        DC8 154, 214, 154, 214, 154, 214, 154, 214, 154, 214, 154, 214, 154
        DC8 214, 154, 214, 154, 214, 154, 214, 154, 214, 154, 214, 154, 214
        DC8 154, 214, 182, 181, 203, 90, 170, 82, 170, 82, 89, 206, 89, 206, 89
        DC8 206, 89, 206, 89, 206, 89, 206, 89, 206, 89, 206, 89, 206, 89, 206
        DC8 89, 206, 89, 206, 89, 206, 89, 206, 89, 206, 89, 206, 89, 206, 247
        DC8 189, 138, 82, 203, 90, 85, 173, 56, 198, 56, 198, 56, 198, 56, 198
        DC8 56, 198, 56, 198, 56, 198, 56, 198, 56, 198, 56, 198, 56, 198, 56
        DC8 198, 56, 198, 56, 198, 56, 198, 56, 198, 215, 189, 203, 90, 235, 90
        DC8 109, 107, 85, 173, 24, 198, 24, 198, 24, 198, 24, 198, 24, 198, 24
        DC8 198, 24, 198, 24, 198, 24, 198, 24, 198, 24, 198, 24, 198, 24, 198
        DC8 24, 198, 24, 198, 207, 123, 235, 90, 235, 90, 235, 90, 235, 90, 235
        DC8 90, 235, 90, 235, 90, 235, 90, 235, 90, 235, 90, 235, 90, 235, 90
        DC8 235, 90, 235, 90, 235, 90, 235, 90, 235, 90, 235, 90, 235, 90, 235
        DC8 90, 235, 90, 174, 115, 174, 115, 174, 115, 142, 115, 44, 99, 170
        DC8 82, 40, 66, 199, 57, 101, 41, 101, 41, 101, 41, 134, 49, 231, 57
        DC8 105, 74, 12, 99, 109, 107, 174, 115, 174, 115, 174, 115, 174, 115
        DC8 142, 115, 142, 115, 77, 107, 203, 90, 231, 57, 40, 66, 48, 132, 154
        DC8 214, 255, 255, 255, 255, 255, 255, 255, 255, 20, 165, 207, 123, 199
        DC8 57, 138, 82, 77, 107, 142, 115, 142, 115, 142, 115, 142, 115, 77
        DC8 107, 170, 82, 8, 66, 150, 181, 255, 255, 255, 255, 255, 255, 255
        DC8 255, 255, 255, 255, 255, 255, 255, 255, 255, 255, 255, 154, 214
        DC8 203, 90, 138, 82, 77, 107, 142, 115, 142, 115, 109, 107, 235, 90
        DC8 40, 66, 251, 222, 255, 255, 255, 255, 255, 255, 255, 255, 255, 255
        DC8 255, 255, 255, 255, 255, 255, 255, 255, 255, 255, 255, 255, 125
        DC8 239, 235, 90, 235, 90, 109, 107, 142, 115, 77, 107, 105, 74, 24
        DC8 198, 255, 255, 255, 255, 255, 255, 255, 255, 255, 255, 255, 255
        DC8 255, 255, 255, 255, 255, 255, 255, 255, 255, 255, 255, 255, 255
        DC8 255, 154, 214, 105, 74, 77, 107, 109, 107, 12, 99, 174, 115, 255
        DC8 255, 255, 255, 255, 255, 255, 255, 219, 222, 81, 140, 77, 107, 77
        DC8 107, 142, 115, 215, 189, 255, 255, 255, 255, 255, 255, 255, 255
        DC8 255, 255, 174, 115, 12, 99, 109, 107, 12, 99, 243, 156, 255, 255
        DC8 255, 255, 255, 255, 60, 231, 44, 99, 44, 99, 77, 107, 77, 107, 77
        DC8 107, 12, 99, 52, 165, 255, 255, 255, 255, 255, 255, 255, 255, 178
        DC8 148, 235, 90, 77, 107, 44, 99, 113, 140, 255, 255, 255, 255, 255
        DC8 255, 211, 156, 12, 99, 44, 99, 44, 99, 44, 99, 44, 99, 235, 90, 142
        DC8 115, 255, 255, 255, 255, 255, 255, 255, 255, 211, 156, 235, 90, 44
        DC8 99, 44, 99, 12, 99, 243, 156, 52, 165, 85, 173, 12, 99, 44, 99, 44
        DC8 99, 44, 99, 44, 99, 235, 90, 105, 74, 44, 99, 255, 255, 255, 255
        DC8 255, 255, 255, 255, 146, 148, 12, 99, 44, 99, 44, 99, 44, 99, 44
        DC8 99, 44, 99, 44, 99, 12, 99, 203, 90, 138, 82, 105, 74, 105, 74, 8
        DC8 66, 101, 41, 150, 181, 255, 255, 255, 255, 255, 255, 255, 255, 109
        DC8 107, 12, 99, 44, 99, 12, 99, 12, 99, 12, 99, 12, 99, 12, 99, 138
        DC8 82, 231, 57, 69, 41, 36, 33, 4, 33, 203, 90, 247, 189, 255, 255
        DC8 255, 255, 255, 255, 255, 255, 117, 173, 235, 90, 12, 99, 12, 99, 12
        DC8 99, 12, 99, 12, 99, 12, 99, 203, 90, 40, 66, 178, 148, 255, 255
        DC8 255, 255, 255, 255, 255, 255, 255, 255, 255, 255, 255, 255, 255
        DC8 255, 89, 206, 170, 82, 235, 90, 12, 99, 12, 99, 235, 90, 235, 90
        DC8 235, 90, 235, 90, 203, 90, 239, 123, 255, 255, 255, 255, 255, 255
        DC8 255, 255, 255, 255, 255, 255, 255, 255, 255, 255, 251, 222, 101, 41
        DC8 40, 66, 170, 82, 235, 90, 235, 90, 235, 90, 235, 90, 235, 90, 235
        DC8 90, 203, 90, 48, 132, 255, 255, 255, 255, 255, 255, 255, 255, 255
        DC8 255, 255, 255, 255, 255, 255, 255, 255, 255, 24, 198, 40, 66, 40
        DC8 66, 170, 82, 235, 90, 235, 90, 235, 90, 235, 90, 235, 90, 203, 90
        DC8 12, 99, 219, 222, 255, 255, 255, 255, 255, 255, 255, 255, 255, 255
        DC8 255, 255, 255, 255, 255, 255, 255, 255, 251, 222, 73, 74, 73, 74
        DC8 203, 90, 199, 57, 199, 57, 199, 57, 199, 57, 199, 57, 199, 57, 199
        DC8 57, 199, 57, 199, 57, 199, 57, 199, 57, 231, 57, 231, 57, 231, 57
        DC8 231, 57, 231, 57, 231, 57, 231, 57, 166, 49, 166, 49, 178, 148, 113
        DC8 140, 48, 132, 48, 132, 113, 140, 178, 148, 178, 148, 178, 148, 178
        DC8 148, 178, 148, 178, 148, 178, 148, 146, 148, 251, 222, 190, 247
        DC8 190, 247, 190, 247, 190, 247, 20, 165, 211, 156, 12, 99, 73, 74
        DC8 166, 49, 166, 49, 73, 74, 12, 99, 109, 107, 109, 107, 109, 107, 109
        DC8 107, 109, 107, 109, 107, 77, 107, 16, 132, 158, 247, 158, 247, 158
        DC8 247, 158, 247, 211, 156, 235, 90, 203, 90, 109, 107, 24, 198, 154
        DC8 214, 109, 107, 170, 82, 109, 107, 142, 115, 142, 115, 142, 115, 142
        DC8 115, 142, 115, 77, 107, 44, 99, 125, 239, 125, 239, 125, 239, 125
        DC8 239, 247, 189, 12, 99, 203, 90, 93, 239, 93, 239, 93, 239, 219, 222
        DC8 73, 74, 235, 90, 77, 107, 109, 107, 109, 107, 109, 107, 77, 107, 12
        DC8 99, 170, 82, 93, 239, 93, 239, 93, 239, 93, 239, 215, 189, 12, 99
        DC8 207, 123, 28, 231, 28, 231, 28, 231, 28, 231, 239, 123, 40, 66, 235
        DC8 90, 77, 107, 77, 107, 77, 107, 235, 90, 73, 74, 142, 115, 28, 231
        DC8 28, 231, 28, 231, 28, 231, 211, 156, 44, 99, 44, 99, 154, 214, 251
        DC8 222, 251, 222, 251, 222, 251, 222, 73, 74, 231, 57, 105, 74, 170
        DC8 82, 105, 74, 231, 57, 8, 66, 121, 206, 251, 222, 251, 222, 251, 222
        DC8 251, 222, 207, 123, 77, 107, 44, 99, 178, 148, 186, 214, 186, 214
        DC8 186, 214, 186, 214, 89, 206, 142, 115, 36, 33, 69, 41, 36, 33, 142
        DC8 115, 89, 206, 186, 214, 186, 214, 186, 214, 186, 214, 215, 189, 12
        DC8 99, 77, 107, 44, 99, 44, 99, 247, 189, 154, 214, 154, 214, 154, 214
        DC8 154, 214, 154, 214, 154, 214, 154, 214, 154, 214, 154, 214, 154
        DC8 214, 154, 214, 154, 214, 154, 214, 154, 214, 142, 115, 12, 99, 44
        DC8 99, 44, 99, 12, 99, 77, 107, 215, 189, 89, 206, 89, 206, 89, 206
        DC8 89, 206, 89, 206, 89, 206, 89, 206, 89, 206, 89, 206, 89, 206, 89
        DC8 206, 89, 206, 174, 115, 12, 99, 44, 99, 44, 99, 12, 99, 12, 99, 12
        DC8 99, 44, 99, 243, 156, 56, 198, 56, 198, 56, 198, 56, 198, 56, 198
        DC8 56, 198, 56, 198, 56, 198, 56, 198, 52, 165, 142, 115, 12, 99, 12
        DC8 99, 12, 99, 12, 99, 12, 99, 12, 99, 12, 99, 12, 99, 235, 90, 109
        DC8 107, 48, 132, 215, 189, 24, 198, 24, 198, 24, 198, 215, 189, 48
        DC8 132, 174, 115, 235, 90, 12, 99, 12, 99, 12, 99, 12, 99, 12, 99, 235
        DC8 90, 235, 90, 235, 90, 235, 90, 235, 90, 235, 90, 235, 90, 235, 90
        DC8 235, 90, 235, 90, 235, 90, 235, 90, 235, 90, 235, 90, 235, 90, 235
        DC8 90, 235, 90, 235, 90, 235, 90, 235, 90, 174, 115, 174, 115, 174
        DC8 115, 174, 115, 174, 115, 174, 115, 174, 115, 174, 115, 174, 115
        DC8 174, 115, 174, 115, 109, 107, 203, 90, 231, 57, 134, 49, 231, 57
        DC8 203, 90, 142, 115, 174, 115, 174, 115, 142, 115, 142, 115, 142, 115
        DC8 142, 115, 142, 115, 142, 115, 142, 115, 142, 115, 142, 115, 142
        DC8 115, 109, 107, 203, 90, 105, 74, 154, 214, 255, 255, 154, 214, 170
        DC8 82, 12, 99, 142, 115, 142, 115, 142, 115, 142, 115, 142, 115, 142
        DC8 115, 142, 115, 142, 115, 142, 115, 142, 115, 142, 115, 109, 107
        DC8 235, 90, 40, 66, 251, 222, 255, 255, 255, 255, 255, 255, 56, 198
        DC8 203, 90, 142, 115, 142, 115, 142, 115, 142, 115, 142, 115, 142, 115
        DC8 142, 115, 142, 115, 142, 115, 142, 115, 109, 107, 12, 99, 8, 66
        DC8 150, 181, 255, 255, 255, 255, 255, 255, 255, 255, 158, 247, 203, 90
        DC8 142, 115, 142, 115, 109, 107, 109, 107, 109, 107, 109, 107, 109
        DC8 107, 109, 107, 109, 107, 109, 107, 44, 99, 105, 74, 81, 140, 255
        DC8 255, 255, 255, 255, 255, 255, 255, 255, 255, 255, 255, 203, 90, 109
        DC8 107, 109, 107, 109, 107, 109, 107, 109, 107, 109, 107, 109, 107
        DC8 109, 107, 109, 107, 77, 107, 170, 82, 203, 90, 255, 255, 255, 255
        DC8 255, 255, 255, 255, 255, 255, 255, 255, 255, 255, 170, 82, 109, 107
        DC8 109, 107, 77, 107, 77, 107, 77, 107, 77, 107, 77, 107, 77, 107, 44
        DC8 99, 203, 90, 199, 57, 28, 231, 255, 255, 255, 255, 255, 255, 255
        DC8 255, 255, 255, 255, 255, 255, 255, 138, 82, 77, 107, 77, 107, 44
        DC8 99, 44, 99, 44, 99, 44, 99, 44, 99, 44, 99, 203, 90, 8, 66, 178
        DC8 148, 255, 255, 255, 255, 255, 255, 215, 189, 255, 255, 255, 255
        DC8 255, 255, 255, 255, 138, 82, 44, 99, 44, 99, 44, 99, 44, 99, 44, 99
        DC8 44, 99, 44, 99, 12, 99, 73, 74, 109, 107, 255, 255, 255, 255, 255
        DC8 255, 85, 173, 81, 140, 255, 255, 255, 255, 255, 255, 255, 255, 138
        DC8 82, 44, 99, 44, 99, 44, 99, 44, 99, 44, 99, 44, 99, 12, 99, 138, 82
        DC8 73, 74, 125, 239, 255, 255, 255, 255, 60, 231, 235, 90, 81, 140
        DC8 255, 255, 255, 255, 255, 255, 255, 255, 105, 74, 44, 99, 44, 99, 12
        DC8 99, 12, 99, 12, 99, 12, 99, 138, 82, 199, 57, 154, 214, 255, 255
        DC8 255, 255, 255, 255, 174, 115, 203, 90, 81, 140, 255, 255, 255, 255
        DC8 255, 255, 255, 255, 105, 74, 12, 99, 12, 99, 12, 99, 12, 99, 235
        DC8 90, 170, 82, 231, 57, 178, 148, 255, 255, 255, 255, 255, 255, 85
        DC8 173, 235, 90, 170, 82, 81, 140, 255, 255, 255, 255, 255, 255, 255
        DC8 255, 105, 74, 12, 99, 12, 99, 235, 90, 235, 90, 203, 90, 40, 66
        DC8 109, 107, 255, 255, 255, 255, 255, 255, 219, 222, 170, 82, 235, 90
        DC8 170, 82, 81, 140, 255, 255, 255, 255, 255, 255, 255, 255, 73, 74
        DC8 235, 90, 235, 90, 235, 90, 203, 90, 73, 74, 73, 74, 125, 239, 255
        DC8 255, 255, 255, 255, 255, 142, 115, 203, 90, 235, 90, 170, 82, 81
        DC8 140, 255, 255, 255, 255, 255, 255, 255, 255, 73, 74, 235, 90, 235
        DC8 90, 203, 90, 138, 82, 166, 49, 24, 198, 255, 255, 255, 255, 255
        DC8 255, 243, 156, 203, 90, 235, 90, 235, 90, 170, 82, 48, 132, 255
        DC8 255, 255, 255, 255, 255, 255, 255, 73, 74, 235, 90, 235, 90, 199
        DC8 57, 166, 49, 40, 66, 12, 99, 12, 99, 12, 99, 170, 82, 199, 57, 199
        DC8 57, 199, 57, 199, 57, 199, 57, 8, 66, 231, 57, 231, 57, 231, 57
        DC8 231, 57, 166, 49, 166, 49, 166, 49, 239, 123, 207, 123, 190, 247
        DC8 190, 247, 190, 247, 93, 239, 48, 132, 239, 123, 16, 132, 16, 132
        DC8 16, 132, 207, 123, 243, 156, 190, 247, 190, 247, 190, 247, 190, 247
        DC8 16, 132, 146, 148, 178, 148, 138, 82, 186, 214, 158, 247, 158, 247
        DC8 158, 247, 239, 123, 36, 33, 69, 41, 69, 41, 69, 41, 69, 41, 36, 33
        DC8 142, 115, 158, 247, 158, 247, 158, 247, 158, 247, 36, 33, 101, 41
        DC8 199, 57, 146, 148, 125, 239, 125, 239, 125, 239, 125, 239, 125, 239
        DC8 125, 239, 125, 239, 125, 239, 125, 239, 125, 239, 125, 239, 125
        DC8 239, 125, 239, 125, 239, 125, 239, 125, 239, 125, 239, 125, 239, 56
        DC8 198, 243, 156, 93, 239, 93, 239, 93, 239, 93, 239, 93, 239, 93, 239
        DC8 93, 239, 93, 239, 93, 239, 93, 239, 93, 239, 93, 239, 93, 239, 93
        DC8 239, 93, 239, 93, 239, 93, 239, 93, 239, 93, 239, 239, 123, 28, 231
        DC8 28, 231, 28, 231, 28, 231, 28, 231, 28, 231, 28, 231, 28, 231, 28
        DC8 231, 28, 231, 28, 231, 28, 231, 28, 231, 28, 231, 28, 231, 28, 231
        DC8 28, 231, 28, 231, 28, 231, 77, 107, 146, 148, 154, 214, 251, 222
        DC8 251, 222, 251, 222, 251, 222, 251, 222, 251, 222, 251, 222, 251
        DC8 222, 251, 222, 251, 222, 251, 222, 251, 222, 251, 222, 251, 222
        DC8 251, 222, 251, 222, 24, 198, 77, 107, 77, 107, 77, 107, 77, 107, 77
        DC8 107, 77, 107, 77, 107, 77, 107, 77, 107, 77, 107, 77, 107, 235, 90
        DC8 207, 123, 186, 214, 186, 214, 186, 214, 186, 214, 138, 82, 77, 107
        DC8 77, 107, 44, 99, 44, 99, 44, 99, 44, 99, 44, 99, 44, 99, 44, 99, 44
        DC8 99, 44, 99, 44, 99, 44, 99, 235, 90, 207, 123, 154, 214, 154, 214
        DC8 154, 214, 154, 214, 138, 82, 44, 99, 44, 99, 44, 99, 44, 99, 44, 99
        DC8 44, 99, 44, 99, 44, 99, 44, 99, 44, 99, 44, 99, 44, 99, 44, 99, 235
        DC8 90, 207, 123, 89, 206, 89, 206, 89, 206, 89, 206, 138, 82, 44, 99
        DC8 44, 99, 12, 99, 12, 99, 12, 99, 12, 99, 12, 99, 12, 99, 12, 99, 12
        DC8 99, 12, 99, 12, 99, 12, 99, 12, 99, 207, 123, 56, 198, 56, 198, 56
        DC8 198, 215, 189, 203, 90, 12, 99, 12, 99, 12, 99, 12, 99, 12, 99, 12
        DC8 99, 12, 99, 12, 99, 12, 99, 12, 99, 12, 99, 12, 99, 12, 99, 12, 99
        DC8 235, 90, 211, 156, 24, 198, 24, 198, 207, 123, 235, 90, 12, 99, 12
        DC8 99, 235, 90, 235, 90, 235, 90, 235, 90, 235, 90, 235, 90, 235, 90
        DC8 235, 90, 235, 90, 235, 90, 235, 90, 235, 90, 235, 90, 235, 90, 235
        DC8 90, 235, 90, 235, 90, 235, 90, 235, 90, 235, 90, 174, 115, 174, 115
        DC8 142, 115, 12, 99, 40, 66, 134, 49, 101, 41, 101, 41, 101, 41, 101
        DC8 41, 101, 41, 101, 41, 101, 41, 101, 41, 101, 41, 101, 41, 166, 49
        DC8 73, 74, 77, 107, 174, 115, 142, 115, 142, 115, 77, 107, 73, 74, 52
        DC8 165, 255, 255, 255, 255, 255, 255, 255, 255, 255, 255, 255, 255
        DC8 255, 255, 255, 255, 255, 255, 255, 255, 255, 255, 255, 255, 113
        DC8 140, 170, 82, 109, 107, 142, 115, 142, 115, 235, 90, 146, 148, 255
        DC8 255, 255, 255, 255, 255, 255, 255, 255, 255, 255, 255, 255, 255
        DC8 255, 255, 255, 255, 255, 255, 255, 255, 255, 255, 255, 255, 255
        DC8 255, 174, 115, 109, 107, 142, 115, 142, 115, 203, 90, 154, 214, 255
        DC8 255, 255, 255, 255, 255, 255, 255, 255, 255, 255, 255, 255, 255
        DC8 255, 255, 255, 255, 255, 255, 255, 255, 255, 255, 255, 255, 255
        DC8 255, 16, 132, 109, 107, 109, 107, 109, 107, 170, 82, 125, 239, 255
        DC8 255, 255, 255, 255, 255, 255, 255, 255, 255, 255, 255, 255, 255
        DC8 255, 255, 255, 255, 255, 255, 255, 255, 255, 255, 255, 255, 85, 173
        DC8 77, 107, 109, 107, 109, 107, 44, 99, 170, 82, 255, 255, 255, 255
        DC8 255, 255, 255, 255, 142, 115, 77, 107, 109, 107, 109, 107, 109, 107
        DC8 109, 107, 109, 107, 109, 107, 109, 107, 109, 107, 109, 107, 109
        DC8 107, 109, 107, 77, 107, 235, 90, 142, 115, 255, 255, 255, 255, 255
        DC8 255, 255, 255, 235, 90, 44, 99, 77, 107, 77, 107, 77, 107, 77, 107
        DC8 77, 107, 77, 107, 77, 107, 77, 107, 77, 107, 77, 107, 77, 107, 44
        DC8 99, 203, 90, 146, 148, 255, 255, 255, 255, 255, 255, 158, 247, 170
        DC8 82, 44, 99, 44, 99, 44, 99, 44, 99, 44, 99, 44, 99, 44, 99, 44, 99
        DC8 44, 99, 44, 99, 44, 99, 44, 99, 44, 99, 170, 82, 243, 156, 255, 255
        DC8 255, 255, 255, 255, 89, 206, 170, 82, 203, 90, 170, 82, 138, 82
        DC8 138, 82, 138, 82, 203, 90, 12, 99, 44, 99, 44, 99, 44, 99, 44, 99
        DC8 44, 99, 12, 99, 138, 82, 56, 198, 255, 255, 255, 255, 255, 255, 85
        DC8 173, 8, 66, 199, 57, 101, 41, 36, 33, 36, 33, 69, 41, 199, 57, 73
        DC8 74, 170, 82, 12, 99, 44, 99, 44, 99, 44, 99, 12, 99, 73, 74, 125
        DC8 239, 255, 255, 255, 255, 255, 255, 48, 132, 231, 57, 16, 132, 125
        DC8 239, 255, 255, 255, 255, 255, 255, 16, 132, 105, 74, 166, 49, 105
        DC8 74, 235, 90, 12, 99, 12, 99, 203, 90, 105, 74, 255, 255, 255, 255
        DC8 255, 255, 255, 255, 121, 206, 255, 255, 255, 255, 255, 255, 255
        DC8 255, 255, 255, 255, 255, 255, 255, 255, 255, 20, 165, 134, 49, 105
        DC8 74, 235, 90, 12, 99, 170, 82, 12, 99, 255, 255, 255, 255, 255, 255
        DC8 255, 255, 255, 255, 255, 255, 255, 255, 255, 255, 255, 255, 255
        DC8 255, 255, 255, 255, 255, 255, 255, 255, 255, 154, 214, 166, 49, 138
        DC8 82, 235, 90, 170, 82, 81, 140, 255, 255, 255, 255, 255, 255, 255
        DC8 255, 255, 255, 255, 255, 255, 255, 255, 255, 255, 255, 255, 255
        DC8 255, 255, 255, 255, 255, 255, 255, 255, 255, 255, 52, 165, 8, 66
        DC8 170, 82, 203, 90, 211, 156, 255, 255, 255, 255, 255, 255, 255, 255
        DC8 255, 255, 20, 165, 203, 90, 235, 90, 203, 90, 113, 140, 121, 206
        DC8 255, 255, 255, 255, 255, 255, 255, 255, 255, 255, 77, 107, 138, 82
        DC8 166, 49, 231, 57, 12, 99, 12, 99, 12, 99, 170, 82, 231, 57, 166, 49
        DC8 199, 57, 199, 57, 199, 57, 199, 57, 199, 57, 170, 82, 12, 99, 12
        DC8 99, 12, 99, 12, 99, 73, 74, 166, 49, 52, 165, 20, 165, 150, 181, 56
        DC8 198, 24, 198, 20, 165, 52, 165, 243, 156, 178, 148, 178, 148, 178
        DC8 148, 178, 148, 178, 148, 178, 148, 190, 247, 190, 247, 190, 247
        DC8 190, 247, 186, 214, 16, 132, 77, 107, 12, 99, 203, 90, 203, 90, 12
        DC8 99, 77, 107, 109, 107, 109, 107, 109, 107, 109, 107, 109, 107, 109
        DC8 107, 109, 107, 203, 90, 186, 214, 158, 247, 158, 247, 158, 247, 158
        DC8 247, 170, 82, 12, 99, 40, 66, 101, 41, 101, 41, 8, 66, 235, 90, 109
        DC8 107, 142, 115, 142, 115, 142, 115, 142, 115, 142, 115, 109, 107
        DC8 170, 82, 154, 214, 125, 239, 125, 239, 125, 239, 125, 239, 235, 90
        DC8 170, 82, 211, 156, 93, 239, 93, 239, 178, 148, 40, 66, 12, 99, 77
        DC8 107, 109, 107, 109, 107, 109, 107, 109, 107, 44, 99, 40, 66, 219
        DC8 222, 93, 239, 93, 239, 93, 239, 121, 206, 235, 90, 235, 90, 28, 231
        DC8 28, 231, 28, 231, 28, 231, 44, 99, 40, 66, 235, 90, 44, 99, 77, 107
        DC8 77, 107, 12, 99, 105, 74, 235, 90, 28, 231, 28, 231, 28, 231, 28
        DC8 231, 85, 173, 12, 99, 235, 90, 154, 214, 251, 222, 251, 222, 251
        DC8 222, 121, 206, 73, 74, 231, 57, 105, 74, 170, 82, 138, 82, 8, 66
        DC8 166, 49, 150, 181, 251, 222, 251, 222, 251, 222, 251, 222, 81, 140
        DC8 77, 107, 44, 99, 243, 156, 186, 214, 186, 214, 186, 214, 186, 214
        DC8 186, 214, 142, 115, 101, 41, 69, 41, 36, 33, 44, 99, 215, 189, 186
        DC8 214, 186, 214, 186, 214, 186, 214, 24, 198, 12, 99, 77, 107, 12, 99
        DC8 77, 107, 154, 214, 154, 214, 154, 214, 154, 214, 154, 214, 154, 214
        DC8 154, 214, 154, 214, 154, 214, 154, 214, 154, 214, 154, 214, 154
        DC8 214, 154, 214, 154, 214, 239, 123, 12, 99, 44, 99, 44, 99, 12, 99
        DC8 174, 115, 89, 206, 89, 206, 89, 206, 89, 206, 89, 206, 89, 206, 89
        DC8 206, 89, 206, 89, 206, 89, 206, 89, 206, 89, 206, 89, 206, 48, 132
        DC8 12, 99, 44, 99, 44, 99, 12, 99, 12, 99, 12, 99, 142, 115, 117, 173
        DC8 56, 198, 56, 198, 56, 198, 56, 198, 56, 198, 56, 198, 56, 198, 56
        DC8 198, 56, 198, 182, 181, 174, 115, 12, 99, 12, 99, 12, 99, 12, 99
        DC8 12, 99, 12, 99, 12, 99, 12, 99, 235, 90, 16, 132, 113, 140, 24, 198
        DC8 24, 198, 24, 198, 24, 198, 24, 198, 48, 132, 207, 123, 235, 90, 12
        DC8 99, 12, 99, 12, 99, 12, 99, 12, 99, 235, 90, 235, 90, 235, 90, 235
        DC8 90, 235, 90, 235, 90, 235, 90, 235, 90, 235, 90, 235, 90, 235, 90
        DC8 235, 90, 235, 90, 235, 90, 235, 90, 235, 90, 235, 90, 235, 90, 235
        DC8 90, 235, 90, 174, 115, 174, 115, 174, 115, 174, 115, 142, 115, 44
        DC8 99, 170, 82, 40, 66, 166, 49, 101, 41, 101, 41, 101, 41, 166, 49
        DC8 40, 66, 170, 82, 44, 99, 142, 115, 174, 115, 174, 115, 174, 115
        DC8 142, 115, 142, 115, 142, 115, 109, 107, 203, 90, 8, 66, 170, 82, 48
        DC8 132, 251, 222, 255, 255, 255, 255, 255, 255, 125, 239, 48, 132, 40
        DC8 66, 8, 66, 235, 90, 109, 107, 142, 115, 142, 115, 142, 115, 142
        DC8 115, 77, 107, 170, 82, 199, 57, 52, 165, 255, 255, 255, 255, 255
        DC8 255, 255, 255, 255, 255, 255, 255, 255, 255, 255, 255, 255, 255, 52
        DC8 165, 231, 57, 235, 90, 109, 107, 142, 115, 142, 115, 109, 107, 235
        DC8 90, 40, 66, 154, 214, 255, 255, 255, 255, 255, 255, 255, 255, 255
        DC8 255, 255, 255, 255, 255, 255, 255, 255, 255, 255, 255, 255, 255, 24
        DC8 198, 40, 66, 44, 99, 142, 115, 109, 107, 44, 99, 40, 66, 24, 198
        DC8 255, 255, 255, 255, 255, 255, 255, 255, 255, 255, 255, 255, 255
        DC8 255, 255, 255, 255, 255, 255, 255, 255, 255, 255, 255, 255, 255
        DC8 146, 148, 235, 90, 109, 107, 77, 107, 170, 82, 16, 132, 255, 255
        DC8 255, 255, 255, 255, 255, 255, 255, 255, 247, 189, 142, 115, 77, 107
        DC8 142, 115, 215, 189, 255, 255, 255, 255, 255, 255, 255, 255, 186
        DC8 214, 203, 90, 109, 107, 12, 99, 40, 66, 28, 231, 255, 255, 255, 255
        DC8 255, 255, 255, 255, 211, 156, 44, 99, 77, 107, 77, 107, 77, 107, 12
        DC8 99, 117, 173, 255, 255, 255, 255, 255, 255, 255, 255, 235, 90, 77
        DC8 107, 203, 90, 207, 123, 255, 255, 255, 255, 255, 255, 255, 255, 247
        DC8 189, 235, 90, 44, 99, 44, 99, 44, 99, 44, 99, 44, 99, 77, 107, 219
        DC8 222, 255, 255, 255, 255, 150, 181, 12, 99, 44, 99, 170, 82, 243
        DC8 156, 255, 255, 255, 255, 255, 255, 255, 255, 81, 140, 12, 99, 235
        DC8 90, 170, 82, 138, 82, 138, 82, 138, 82, 203, 90, 235, 90, 174, 115
        DC8 16, 132, 44, 99, 44, 99, 44, 99, 105, 74, 154, 214, 255, 255, 255
        DC8 255, 255, 255, 255, 255, 105, 74, 138, 82, 8, 66, 134, 49, 69, 41
        DC8 36, 33, 69, 41, 166, 49, 8, 66, 138, 82, 235, 90, 12, 99, 44, 99
        DC8 44, 99, 138, 82, 255, 255, 255, 255, 255, 255, 255, 255, 186, 214
        DC8 231, 57, 134, 49, 207, 123, 24, 198, 255, 255, 255, 255, 255, 255
        DC8 20, 165, 77, 107, 134, 49, 73, 74, 203, 90, 12, 99, 12, 99, 44, 99
        DC8 255, 255, 255, 255, 255, 255, 255, 255, 182, 181, 134, 49, 24, 198
        DC8 255, 255, 255, 255, 255, 255, 255, 255, 255, 255, 255, 255, 255
        DC8 255, 24, 198, 199, 57, 73, 74, 203, 90, 12, 99, 109, 107, 255, 255
        DC8 255, 255, 255, 255, 255, 255, 146, 148, 121, 206, 255, 255, 255
        DC8 255, 255, 255, 255, 255, 255, 255, 255, 255, 255, 255, 255, 255
        DC8 255, 255, 251, 222, 231, 57, 105, 74, 235, 90, 81, 140, 255, 255
        DC8 255, 255, 255, 255, 255, 255, 125, 239, 255, 255, 255, 255, 255
        DC8 255, 255, 255, 255, 255, 255, 255, 255, 255, 255, 255, 255, 255
        DC8 255, 255, 255, 255, 150, 181, 8, 66, 170, 82, 81, 140, 255, 255
        DC8 255, 255, 255, 255, 255, 255, 255, 255, 255, 255, 60, 231, 178, 148
        DC8 203, 90, 203, 90, 109, 107, 24, 198, 255, 255, 255, 255, 255, 255
        DC8 255, 255, 255, 255, 77, 107, 138, 82, 40, 66, 12, 99, 12, 99, 12
        DC8 99, 12, 99, 12, 99, 170, 82, 199, 57, 199, 57, 199, 57, 199, 57
        DC8 199, 57, 199, 57, 73, 74, 12, 99, 12, 99, 12, 99, 12, 99, 105, 74
        DC8 166, 49, 243, 156, 190, 247, 190, 247, 190, 247, 190, 247, 190, 247
        DC8 52, 165, 211, 156, 178, 148, 178, 148, 178, 148, 178, 148, 178, 148
        DC8 113, 140, 93, 239, 190, 247, 190, 247, 190, 247, 28, 231, 16, 132
        DC8 142, 115, 158, 247, 158, 247, 158, 247, 158, 247, 158, 247, 170, 82
        DC8 109, 107, 109, 107, 109, 107, 109, 107, 109, 107, 109, 107, 235, 90
        DC8 150, 181, 158, 247, 158, 247, 158, 247, 158, 247, 170, 82, 44, 99
        DC8 125, 239, 125, 239, 125, 239, 125, 239, 125, 239, 138, 82, 109, 107
        DC8 142, 115, 142, 115, 142, 115, 142, 115, 142, 115, 235, 90, 20, 165
        DC8 125, 239, 125, 239, 125, 239, 125, 239, 203, 90, 12, 99, 56, 198
        DC8 93, 239, 93, 239, 93, 239, 93, 239, 73, 74, 12, 99, 77, 107, 109
        DC8 107, 109, 107, 109, 107, 77, 107, 138, 82, 150, 181, 93, 239, 93
        DC8 239, 93, 239, 93, 239, 203, 90, 44, 99, 211, 156, 28, 231, 28, 231
        DC8 28, 231, 28, 231, 142, 115, 73, 74, 235, 90, 77, 107, 77, 107, 44
        DC8 99, 170, 82, 8, 66, 154, 214, 28, 231, 28, 231, 28, 231, 24, 198
        DC8 12, 99, 77, 107, 142, 115, 251, 222, 251, 222, 251, 222, 251, 222
        DC8 121, 206, 8, 66, 8, 66, 138, 82, 138, 82, 73, 74, 166, 49, 113, 140
        DC8 251, 222, 251, 222, 251, 222, 251, 222, 146, 148, 44, 99, 77, 107
        DC8 12, 99, 150, 181, 186, 214, 186, 214, 186, 214, 186, 214, 89, 206
        DC8 44, 99, 36, 33, 36, 33, 199, 57, 178, 148, 186, 214, 186, 214, 186
        DC8 214, 186, 214, 89, 206, 44, 99, 77, 107, 44, 99, 12, 99, 77, 107
        DC8 56, 198, 154, 214, 154, 214, 154, 214, 154, 214, 154, 214, 154, 214
        DC8 154, 214, 154, 214, 154, 214, 154, 214, 154, 214, 154, 214, 154
        DC8 214, 81, 140, 12, 99, 44, 99, 44, 99, 44, 99, 12, 99, 174, 115, 89
        DC8 206, 89, 206, 89, 206, 89, 206, 89, 206, 89, 206, 89, 206, 89, 206
        DC8 89, 206, 89, 206, 89, 206, 89, 206, 211, 156, 12, 99, 44, 99, 44
        DC8 99, 12, 99, 12, 99, 12, 99, 12, 99, 142, 115, 182, 181, 56, 198, 56
        DC8 198, 56, 198, 56, 198, 56, 198, 56, 198, 56, 198, 56, 198, 56, 198
        DC8 16, 132, 235, 90, 12, 99, 12, 99, 12, 99, 12, 99, 12, 99, 12, 99
        DC8 12, 99, 12, 99, 235, 90, 16, 132, 178, 148, 24, 198, 24, 198, 24
        DC8 198, 24, 198, 20, 165, 81, 140, 235, 90, 12, 99, 12, 99, 12, 99, 12
        DC8 99, 12, 99, 235, 90, 235, 90, 235, 90, 235, 90, 235, 90, 235, 90
        DC8 235, 90, 235, 90, 235, 90, 235, 90, 235, 90, 235, 90, 235, 90, 235
        DC8 90, 235, 90, 235, 90, 235, 90, 235, 90, 235, 90, 235, 90, 142, 115
        DC8 12, 99, 40, 66, 134, 49, 101, 41, 101, 41, 101, 41, 101, 41, 101
        DC8 41, 101, 41, 101, 41, 101, 41, 101, 41, 101, 41, 101, 41, 101, 41
        DC8 101, 41, 134, 49, 73, 74, 44, 99, 109, 107, 203, 90, 182, 181, 255
        DC8 255, 255, 255, 255, 255, 255, 255, 255, 255, 255, 255, 255, 255
        DC8 255, 255, 255, 255, 255, 255, 255, 255, 255, 255, 255, 255, 255
        DC8 255, 255, 255, 211, 156, 105, 74, 77, 107, 81, 140, 255, 255, 255
        DC8 255, 255, 255, 255, 255, 255, 255, 255, 255, 255, 255, 255, 255
        DC8 255, 255, 255, 255, 255, 255, 255, 255, 255, 255, 255, 255, 255
        DC8 255, 255, 255, 255, 255, 211, 156, 109, 107, 178, 148, 255, 255
        DC8 255, 255, 255, 255, 255, 255, 255, 255, 255, 255, 255, 255, 255
        DC8 255, 255, 255, 255, 255, 255, 255, 255, 255, 255, 255, 255, 255
        DC8 255, 255, 255, 255, 255, 255, 20, 165, 109, 107, 77, 107, 85, 173
        DC8 255, 255, 255, 255, 255, 255, 255, 255, 255, 255, 255, 255, 255
        DC8 255, 255, 255, 255, 255, 255, 255, 255, 255, 255, 255, 255, 255
        DC8 255, 255, 255, 255, 255, 255, 174, 115, 109, 107, 109, 107, 109
        DC8 107, 109, 107, 109, 107, 109, 107, 109, 107, 109, 107, 109, 107
        DC8 109, 107, 109, 107, 44, 99, 105, 74, 81, 140, 255, 255, 255, 255
        DC8 255, 255, 255, 255, 52, 165, 77, 107, 77, 107, 77, 107, 77, 107, 77
        DC8 107, 77, 107, 77, 107, 77, 107, 77, 107, 77, 107, 77, 107, 44, 99
        DC8 170, 82, 105, 74, 255, 255, 255, 255, 255, 255, 255, 255, 24, 198
        DC8 12, 99, 77, 107, 44, 99, 44, 99, 44, 99, 44, 99, 44, 99, 44, 99, 44
        DC8 99, 44, 99, 44, 99, 44, 99, 203, 90, 231, 57, 154, 214, 255, 255
        DC8 255, 255, 255, 255, 60, 231, 77, 107, 44, 99, 44, 99, 44, 99, 44
        DC8 99, 44, 99, 44, 99, 44, 99, 44, 99, 44, 99, 44, 99, 44, 99, 12, 99
        DC8 73, 74, 81, 140, 255, 255, 255, 255, 255, 255, 255, 255, 207, 123
        DC8 44, 99, 44, 99, 44, 99, 44, 99, 44, 99, 44, 99, 44, 99, 44, 99, 44
        DC8 99, 44, 99, 44, 99, 12, 99, 138, 82, 105, 74, 255, 255, 255, 255
        DC8 255, 255, 255, 255, 20, 165, 12, 99, 44, 99, 44, 99, 44, 99, 12, 99
        DC8 12, 99, 12, 99, 12, 99, 12, 99, 12, 99, 12, 99, 12, 99, 203, 90, 8
        DC8 66, 24, 198, 255, 255, 255, 255, 255, 255, 60, 231, 203, 90, 12, 99
        DC8 12, 99, 12, 99, 12, 99, 12, 99, 12, 99, 12, 99, 12, 99, 12, 99, 12
        DC8 99, 12, 99, 235, 90, 105, 74, 44, 99, 255, 255, 255, 255, 255, 255
        DC8 255, 255, 239, 123, 235, 90, 12, 99, 12, 99, 12, 99, 12, 99, 235
        DC8 90, 235, 90, 235, 90, 235, 90, 235, 90, 235, 90, 235, 90, 170, 82
        DC8 231, 57, 24, 198, 255, 255, 255, 255, 255, 255, 89, 206, 170, 82
        DC8 235, 90, 235, 90, 235, 90, 235, 90, 235, 90, 235, 90, 235, 90, 235
        DC8 90, 235, 90, 235, 90, 235, 90, 203, 90, 105, 74, 44, 99, 255, 255
        DC8 255, 255, 255, 255, 255, 255, 48, 132, 203, 90, 235, 90, 235, 90
        DC8 235, 90, 235, 90, 235, 90, 235, 90, 235, 90, 235, 90, 235, 90, 235
        DC8 90, 235, 90, 170, 82, 8, 66, 24, 198, 255, 255, 255, 255, 255, 255
        DC8 28, 231, 138, 82, 235, 90, 235, 90, 235, 90, 235, 90, 235, 90, 235
        DC8 90, 199, 57, 199, 57, 199, 57, 199, 57, 199, 57, 199, 57, 199, 57
        DC8 231, 57, 12, 99, 12, 99, 12, 99, 138, 82, 199, 57, 166, 49, 166, 49
        DC8 166, 49, 166, 49, 166, 49, 166, 49, 166, 49, 178, 148, 178, 148
        DC8 178, 148, 178, 148, 178, 148, 178, 148, 239, 123, 85, 173, 190, 247
        DC8 190, 247, 190, 247, 190, 247, 243, 156, 52, 165, 52, 165, 52, 165
        DC8 52, 165, 52, 165, 52, 165, 52, 165, 109, 107, 109, 107, 109, 107
        DC8 109, 107, 109, 107, 44, 99, 73, 74, 28, 231, 158, 247, 158, 247
        DC8 158, 247, 219, 222, 12, 99, 109, 107, 109, 107, 109, 107, 109, 107
        DC8 109, 107, 109, 107, 109, 107, 142, 115, 142, 115, 142, 115, 142
        DC8 115, 142, 115, 12, 99, 174, 115, 125, 239, 125, 239, 125, 239, 125
        DC8 239, 243, 156, 44, 99, 142, 115, 142, 115, 142, 115, 142, 115, 142
        DC8 115, 142, 115, 142, 115, 109, 107, 109, 107, 109, 107, 109, 107, 77
        DC8 107, 170, 82, 211, 156, 93, 239, 93, 239, 93, 239, 93, 239, 81, 140
        DC8 44, 99, 109, 107, 109, 107, 109, 107, 109, 107, 109, 107, 109, 107
        DC8 109, 107, 77, 107, 77, 107, 77, 107, 77, 107, 44, 99, 105, 74, 186
        DC8 214, 28, 231, 28, 231, 28, 231, 28, 231, 109, 107, 77, 107, 77, 107
        DC8 77, 107, 77, 107, 77, 107, 77, 107, 77, 107, 77, 107, 77, 107, 77
        DC8 107, 77, 107, 77, 107, 12, 99, 12, 99, 251, 222, 251, 222, 251, 222
        DC8 251, 222, 251, 222, 235, 90, 77, 107, 77, 107, 77, 107, 77, 107, 77
        DC8 107, 77, 107, 77, 107, 77, 107, 77, 107, 77, 107, 77, 107, 77, 107
        DC8 235, 90, 207, 123, 186, 214, 186, 214, 186, 214, 186, 214, 89, 206
        DC8 203, 90, 77, 107, 77, 107, 77, 107, 77, 107, 77, 107, 77, 107, 77
        DC8 107, 77, 107, 44, 99, 44, 99, 44, 99, 44, 99, 203, 90, 16, 132, 154
        DC8 214, 154, 214, 154, 214, 154, 214, 52, 165, 203, 90, 44, 99, 44, 99
        DC8 44, 99, 44, 99, 44, 99, 44, 99, 44, 99, 44, 99, 44, 99, 44, 99, 44
        DC8 99, 44, 99, 235, 90, 16, 132, 89, 206, 89, 206, 89, 206, 89, 206
        DC8 113, 140, 235, 90, 44, 99, 44, 99, 44, 99, 44, 99, 44, 99, 44, 99
        DC8 44, 99, 44, 99, 12, 99, 12, 99, 12, 99, 12, 99, 12, 99, 207, 123
        DC8 56, 198, 56, 198, 56, 198, 56, 198, 44, 99, 12, 99, 12, 99, 12, 99
        DC8 12, 99, 12, 99, 12, 99, 12, 99, 12, 99, 12, 99, 12, 99, 12, 99, 12
        DC8 99, 12, 99, 12, 99, 235, 90, 113, 140, 24, 198, 24, 198, 16, 132
        DC8 235, 90, 12, 99, 12, 99, 12, 99, 12, 99, 12, 99, 12, 99, 12, 99, 12
        DC8 99, 12, 99, 235, 90, 235, 90, 235, 90, 235, 90, 235, 90, 235, 90
        DC8 235, 90, 235, 90, 235, 90, 235, 90, 235, 90, 235, 90, 235, 90, 235
        DC8 90, 235, 90, 235, 90, 235, 90, 235, 90, 235, 90, 235, 90, 174, 115
        DC8 174, 115, 174, 115, 142, 115, 44, 99, 170, 82, 40, 66, 166, 49, 101
        DC8 41, 101, 41, 101, 41, 134, 49, 8, 66, 105, 74, 235, 90, 109, 107
        DC8 174, 115, 174, 115, 174, 115, 174, 115, 142, 115, 142, 115, 109
        DC8 107, 203, 90, 231, 57, 170, 82, 48, 132, 125, 239, 255, 255, 255
        DC8 255, 255, 255, 255, 255, 146, 148, 207, 123, 166, 49, 105, 74, 44
        DC8 99, 142, 115, 142, 115, 142, 115, 142, 115, 109, 107, 203, 90, 199
        DC8 57, 150, 181, 255, 255, 255, 255, 255, 255, 255, 255, 255, 255, 255
        DC8 255, 255, 255, 255, 255, 255, 255, 251, 222, 12, 99, 73, 74, 44, 99
        DC8 109, 107, 142, 115, 109, 107, 12, 99, 73, 74, 154, 214, 255, 255
        DC8 255, 255, 255, 255, 255, 255, 255, 255, 255, 255, 255, 255, 255
        DC8 255, 255, 255, 255, 255, 255, 255, 255, 255, 142, 115, 170, 82, 109
        DC8 107, 142, 115, 77, 107, 138, 82, 85, 173, 255, 255, 255, 255, 255
        DC8 255, 255, 255, 255, 255, 255, 255, 255, 255, 255, 255, 255, 255
        DC8 255, 255, 255, 255, 255, 255, 255, 255, 125, 239, 203, 90, 12, 99
        DC8 109, 107, 12, 99, 203, 90, 255, 255, 255, 255, 255, 255, 255, 255
        DC8 255, 255, 150, 181, 77, 107, 109, 107, 77, 107, 85, 173, 158, 247
        DC8 255, 255, 255, 255, 255, 255, 255, 255, 146, 148, 203, 90, 109, 107
        DC8 203, 90, 178, 148, 255, 255, 255, 255, 255, 255, 255, 255, 146, 148
        DC8 44, 99, 77, 107, 77, 107, 77, 107, 44, 99, 174, 115, 255, 255, 255
        DC8 255, 255, 255, 255, 255, 186, 214, 170, 82, 77, 107, 203, 90, 117
        DC8 173, 255, 255, 255, 255, 255, 255, 255, 255, 105, 74, 12, 99, 44
        DC8 99, 44, 99, 44, 99, 44, 99, 138, 82, 56, 198, 255, 255, 255, 255
        DC8 255, 255, 28, 231, 170, 82, 44, 99, 235, 90, 52, 165, 255, 255, 255
        DC8 255, 255, 255, 255, 255, 199, 57, 170, 82, 12, 99, 44, 99, 12, 99
        DC8 203, 90, 40, 66, 24, 198, 255, 255, 255, 255, 255, 255, 186, 214
        DC8 203, 90, 44, 99, 12, 99, 243, 156, 255, 255, 255, 255, 255, 255
        DC8 255, 255, 207, 123, 199, 57, 73, 74, 105, 74, 73, 74, 231, 57, 40
        DC8 66, 255, 255, 255, 255, 255, 255, 255, 255, 85, 173, 235, 90, 44
        DC8 99, 12, 99, 44, 99, 60, 231, 255, 255, 255, 255, 255, 255, 255, 255
        DC8 146, 148, 4, 33, 36, 33, 4, 33, 174, 115, 251, 222, 255, 255, 255
        DC8 255, 255, 255, 255, 255, 109, 107, 12, 99, 12, 99, 12, 99, 235, 90
        DC8 174, 115, 158, 247, 255, 255, 255, 255, 255, 255, 255, 255, 255
        DC8 255, 255, 255, 255, 255, 255, 255, 255, 255, 255, 255, 255, 255
        DC8 255, 255, 239, 123, 235, 90, 12, 99, 12, 99, 235, 90, 203, 90, 105
        DC8 74, 40, 66, 20, 165, 255, 255, 255, 255, 255, 255, 255, 255, 255
        DC8 255, 255, 255, 255, 255, 255, 255, 255, 255, 24, 198, 203, 90, 40
        DC8 66, 170, 82, 235, 90, 235, 90, 203, 90, 105, 74, 166, 49, 174, 115
        DC8 125, 239, 255, 255, 255, 255, 255, 255, 255, 255, 255, 255, 255
        DC8 255, 255, 255, 255, 255, 255, 255, 255, 255, 20, 165, 199, 57, 40
        DC8 66, 170, 82, 235, 90, 138, 82, 199, 57, 20, 165, 255, 255, 255, 255
        DC8 255, 255, 255, 255, 255, 255, 255, 255, 255, 255, 255, 255, 255
        DC8 255, 255, 255, 255, 255, 255, 255, 255, 255, 251, 222, 73, 74, 73
        DC8 74, 203, 90, 166, 49, 40, 66, 12, 99, 12, 99, 12, 99, 12, 99, 12
        DC8 99, 73, 74, 199, 57, 199, 57, 199, 57, 40, 66, 170, 82, 12, 99, 12
        DC8 99, 12, 99, 12, 99, 170, 82, 166, 49, 199, 57, 16, 132, 93, 239
        DC8 190, 247, 190, 247, 190, 247, 190, 247, 52, 165, 211, 156, 178, 148
        DC8 178, 148, 178, 148, 178, 148, 146, 148, 219, 222, 190, 247, 190
        DC8 247, 190, 247, 190, 247, 146, 148, 81, 140, 239, 123, 158, 247, 158
        DC8 247, 158, 247, 158, 247, 243, 156, 12, 99, 109, 107, 109, 107, 109
        DC8 107, 109, 107, 109, 107, 77, 107, 239, 123, 158, 247, 158, 247, 158
        DC8 247, 158, 247, 150, 181, 235, 90, 146, 148, 125, 239, 125, 239, 125
        DC8 239, 125, 239, 48, 132, 44, 99, 142, 115, 142, 115, 142, 115, 142
        DC8 115, 142, 115, 109, 107, 138, 82, 125, 239, 125, 239, 125, 239, 125
        DC8 239, 56, 198, 235, 90, 146, 148, 93, 239, 93, 239, 93, 239, 93, 239
        DC8 239, 123, 203, 90, 77, 107, 109, 107, 109, 107, 109, 107, 109, 107
        DC8 12, 99, 105, 74, 93, 239, 93, 239, 93, 239, 93, 239, 56, 198, 235
        DC8 90, 48, 132, 28, 231, 28, 231, 28, 231, 28, 231, 178, 148, 8, 66
        DC8 235, 90, 44, 99, 77, 107, 77, 107, 12, 99, 105, 74, 77, 107, 28
        DC8 231, 28, 231, 28, 231, 28, 231, 182, 181, 12, 99, 142, 115, 251
        DC8 222, 251, 222, 251, 222, 251, 222, 251, 222, 170, 82, 231, 57, 105
        DC8 74, 170, 82, 138, 82, 8, 66, 166, 49, 150, 181, 251, 222, 251, 222
        DC8 251, 222, 251, 222, 113, 140, 44, 99, 12, 99, 117, 173, 186, 214
        DC8 186, 214, 186, 214, 186, 214, 186, 214, 142, 115, 101, 41, 69, 41
        DC8 36, 33, 44, 99, 215, 189, 186, 214, 186, 214, 186, 214, 186, 214
        DC8 186, 214, 77, 107, 44, 99, 12, 99, 142, 115, 154, 214, 154, 214
        DC8 154, 214, 154, 214, 154, 214, 154, 214, 154, 214, 154, 214, 154
        DC8 214, 154, 214, 154, 214, 154, 214, 154, 214, 154, 214, 154, 214
        DC8 146, 148, 12, 99, 44, 99, 44, 99, 12, 99, 48, 132, 89, 206, 89, 206
        DC8 89, 206, 89, 206, 89, 206, 89, 206, 89, 206, 89, 206, 89, 206, 89
        DC8 206, 89, 206, 89, 206, 89, 206, 85, 173, 235, 90, 44, 99, 44, 99
        DC8 12, 99, 12, 99, 12, 99, 174, 115, 182, 181, 56, 198, 56, 198, 56
        DC8 198, 56, 198, 56, 198, 56, 198, 56, 198, 56, 198, 56, 198, 56, 198
        DC8 81, 140, 235, 90, 12, 99, 12, 99, 12, 99, 12, 99, 12, 99, 12, 99
        DC8 12, 99, 235, 90, 207, 123, 48, 132, 24, 198, 24, 198, 24, 198, 24
        DC8 198, 24, 198, 211, 156, 48, 132, 235, 90, 12, 99, 12, 99, 12, 99
        DC8 12, 99, 12, 99, 235, 90, 235, 90, 235, 90, 235, 90, 235, 90, 235
        DC8 90, 235, 90, 235, 90, 235, 90, 235, 90, 235, 90, 235, 90, 235, 90
        DC8 235, 90, 235, 90, 235, 90, 235, 90, 235, 90, 235, 90, 235, 90, 174
        DC8 115, 174, 115, 174, 115, 174, 115, 109, 107, 12, 99, 105, 74, 231
        DC8 57, 134, 49, 101, 41, 101, 41, 134, 49, 231, 57, 73, 74, 235, 90
        DC8 109, 107, 174, 115, 174, 115, 174, 115, 174, 115, 142, 115, 142
        DC8 115, 142, 115, 44, 99, 138, 82, 199, 57, 207, 123, 20, 165, 255
        DC8 255, 255, 255, 255, 255, 255, 255, 150, 181, 48, 132, 134, 49, 73
        DC8 74, 12, 99, 109, 107, 142, 115, 142, 115, 142, 115, 109, 107, 44
        DC8 99, 105, 74, 170, 82, 154, 214, 255, 255, 255, 255, 255, 255, 255
        DC8 255, 255, 255, 255, 255, 255, 255, 255, 255, 125, 239, 109, 107, 40
        DC8 66, 12, 99, 109, 107, 142, 115, 142, 115, 77, 107, 138, 82, 44, 99
        DC8 255, 255, 255, 255, 255, 255, 255, 255, 255, 255, 255, 255, 255
        DC8 255, 255, 255, 255, 255, 255, 255, 255, 255, 255, 255, 81, 140, 73
        DC8 74, 44, 99, 142, 115, 109, 107, 235, 90, 138, 82, 125, 239, 255
        DC8 255, 255, 255, 255, 255, 255, 255, 255, 255, 255, 255, 255, 255
        DC8 255, 255, 255, 255, 255, 255, 255, 255, 255, 255, 255, 255, 174
        DC8 115, 203, 90, 109, 107, 44, 99, 105, 74, 24, 198, 255, 255, 255
        DC8 255, 255, 255, 255, 255, 219, 222, 81, 140, 77, 107, 77, 107, 243
        DC8 156, 158, 247, 255, 255, 255, 255, 255, 255, 255, 255, 28, 231, 40
        DC8 66, 12, 99, 235, 90, 44, 99, 255, 255, 255, 255, 255, 255, 255, 255
        DC8 60, 231, 77, 107, 44, 99, 77, 107, 77, 107, 44, 99, 142, 115, 158
        DC8 247, 255, 255, 255, 255, 255, 255, 255, 255, 16, 132, 203, 90, 203
        DC8 90, 146, 148, 255, 255, 255, 255, 255, 255, 255, 255, 81, 140, 44
        DC8 99, 44, 99, 44, 99, 44, 99, 44, 99, 12, 99, 146, 148, 255, 255, 255
        DC8 255, 255, 255, 255, 255, 182, 181, 105, 74, 170, 82, 215, 189, 255
        DC8 255, 255, 255, 255, 255, 255, 255, 138, 82, 44, 99, 44, 99, 44, 99
        DC8 44, 99, 44, 99, 44, 99, 235, 90, 255, 255, 255, 255, 255, 255, 255
        DC8 255, 255, 255, 138, 82, 138, 82, 154, 214, 255, 255, 255, 255, 255
        DC8 255, 28, 231, 138, 82, 44, 99, 44, 99, 44, 99, 44, 99, 44, 99, 44
        DC8 99, 138, 82, 186, 214, 255, 255, 255, 255, 255, 255, 255, 255, 44
        DC8 99, 138, 82, 28, 231, 255, 255, 255, 255, 255, 255, 28, 231, 73, 74
        DC8 12, 99, 12, 99, 12, 99, 12, 99, 12, 99, 12, 99, 105, 74, 56, 198
        DC8 255, 255, 255, 255, 255, 255, 255, 255, 81, 140, 170, 82, 89, 206
        DC8 255, 255, 255, 255, 255, 255, 125, 239, 231, 57, 170, 82, 235, 90
        DC8 12, 99, 12, 99, 235, 90, 203, 90, 231, 57, 28, 231, 255, 255, 255
        DC8 255, 255, 255, 255, 255, 146, 148, 170, 82, 52, 165, 255, 255, 255
        DC8 255, 255, 255, 255, 255, 109, 107, 40, 66, 170, 82, 235, 90, 235
        DC8 90, 170, 82, 40, 66, 12, 99, 255, 255, 255, 255, 255, 255, 255, 255
        DC8 255, 255, 146, 148, 203, 90, 48, 132, 255, 255, 255, 255, 255, 255
        DC8 255, 255, 251, 222, 166, 49, 231, 57, 40, 66, 40, 66, 199, 57, 166
        DC8 49, 154, 214, 255, 255, 255, 255, 255, 255, 255, 255, 255, 255, 146
        DC8 148, 235, 90, 138, 82, 28, 231, 255, 255, 255, 255, 255, 255, 255
        DC8 255, 121, 206, 170, 82, 4, 33, 4, 33, 44, 99, 121, 206, 255, 255
        DC8 255, 255, 255, 255, 255, 255, 255, 255, 255, 255, 146, 148, 166, 49
        DC8 166, 49, 40, 66, 12, 99, 12, 99, 12, 99, 12, 99, 12, 99, 12, 99, 12
        DC8 99, 12, 99, 12, 99, 12, 99, 12, 99, 12, 99, 12, 99, 12, 99, 12, 99
        DC8 12, 99, 40, 66, 52, 165, 52, 165, 20, 165, 121, 206, 190, 247, 190
        DC8 247, 190, 247, 190, 247, 190, 247, 190, 247, 190, 247, 190, 247
        DC8 190, 247, 60, 231, 117, 173, 190, 247, 190, 247, 190, 247, 190, 247
        DC8 85, 173, 109, 107, 109, 107, 109, 107, 77, 107, 117, 173, 158, 247
        DC8 158, 247, 158, 247, 158, 247, 158, 247, 158, 247, 158, 247, 154
        DC8 214, 77, 107, 113, 140, 158, 247, 158, 247, 158, 247, 158, 247, 239
        DC8 123, 142, 115, 142, 115, 142, 115, 142, 115, 109, 107, 48, 132, 20
        DC8 165, 125, 239, 125, 239, 125, 239, 121, 206, 52, 165, 109, 107, 203
        DC8 90, 117, 173, 125, 239, 125, 239, 125, 239, 125, 239, 44, 99, 109
        DC8 107, 77, 107, 12, 99, 203, 90, 170, 82, 203, 90, 44, 99, 77, 107
        DC8 109, 107, 109, 107, 109, 107, 109, 107, 44, 99, 40, 66, 219, 222
        DC8 93, 239, 93, 239, 93, 239, 56, 198, 12, 99, 77, 107, 12, 99, 40, 66
        DC8 101, 41, 69, 41, 134, 49, 73, 74, 235, 90, 77, 107, 77, 107, 77
        DC8 107, 12, 99, 138, 82, 235, 90, 28, 231, 28, 231, 28, 231, 28, 231
        DC8 146, 148, 44, 99, 77, 107, 203, 90, 16, 132, 251, 222, 251, 222
        DC8 121, 206, 73, 74, 231, 57, 105, 74, 170, 82, 138, 82, 40, 66, 134
        DC8 49, 150, 181, 251, 222, 251, 222, 251, 222, 251, 222, 109, 107, 77
        DC8 107, 77, 107, 235, 90, 24, 198, 186, 214, 186, 214, 186, 214, 89
        DC8 206, 142, 115, 36, 33, 69, 41, 36, 33, 203, 90, 117, 173, 186, 214
        DC8 186, 214, 186, 214, 186, 214, 178, 148, 44, 99, 77, 107, 44, 99, 12
        DC8 99, 146, 148, 154, 214, 154, 214, 154, 214, 154, 214, 154, 214, 154
        DC8 214, 154, 214, 154, 214, 154, 214, 154, 214, 154, 214, 154, 214
        DC8 154, 214, 247, 189, 44, 99, 44, 99, 44, 99, 44, 99, 12, 99, 44, 99
        DC8 215, 189, 89, 206, 89, 206, 89, 206, 89, 206, 89, 206, 89, 206, 89
        DC8 206, 89, 206, 89, 206, 89, 206, 89, 206, 24, 198, 77, 107, 12, 99
        DC8 44, 99, 44, 99, 12, 99, 12, 99, 12, 99, 44, 99, 52, 165, 56, 198
        DC8 56, 198, 56, 198, 56, 198, 56, 198, 56, 198, 56, 198, 56, 198, 56
        DC8 198, 52, 165, 77, 107, 12, 99, 12, 99, 12, 99, 12, 99, 12, 99, 12
        DC8 99, 12, 99, 12, 99, 235, 90, 174, 115, 48, 132, 215, 189, 24, 198
        DC8 24, 198, 24, 198, 24, 198, 48, 132, 174, 115, 235, 90, 12, 99, 12
        DC8 99, 12, 99, 12, 99, 12, 99, 235, 90, 235, 90, 235, 90, 235, 90, 235
        DC8 90, 235, 90, 235, 90, 235, 90, 235, 90, 235, 90, 235, 90, 235, 90
        DC8 235, 90, 235, 90, 235, 90, 235, 90, 235, 90, 235, 90, 235, 90, 235
        DC8 90, 134, 198, 134, 198, 134, 198, 134, 198, 102, 198, 134, 198, 134
        DC8 198, 102, 198, 102, 198, 102, 198, 102, 198, 134, 198, 102, 198
        DC8 102, 198, 102, 198, 102, 198, 102, 198, 102, 190, 102, 190, 102
        DC8 190, 102, 190, 102, 198, 102, 190, 103, 190, 102, 190, 103, 190
        DC8 102, 190, 102, 190, 102, 190, 102, 190, 102, 190, 103, 190, 103
        DC8 190, 103, 190, 103, 190, 103, 190, 103, 190, 103, 190, 103, 190
        DC8 103, 190, 103, 190, 103, 190, 103, 190, 103, 190, 103, 190, 103
        DC8 190, 103, 190, 103, 190, 103, 190, 103, 190, 103, 190, 103, 190
        DC8 103, 190, 103, 190, 103, 190, 71, 182, 103, 182, 71, 182, 71, 182
        DC8 71, 182, 71, 182, 71, 182, 71, 182, 71, 182, 71, 182, 71, 182, 71
        DC8 182, 71, 182, 71, 182, 71, 182, 71, 182, 71, 182, 71, 182, 71, 182
        DC8 71, 182, 71, 182, 71, 182, 72, 182, 72, 174, 72, 182, 72, 174, 72
        DC8 174, 72, 182, 72, 182, 72, 174, 72, 174, 72, 174, 72, 182, 71, 174
        DC8 71, 174, 72, 174, 72, 182, 72, 182, 71, 182, 72, 182, 72, 182, 72
        DC8 182, 71, 182, 72, 182, 72, 182, 72, 182, 72, 182, 72, 182, 72, 182
        DC8 72, 182, 72, 182, 72, 182, 72, 174, 72, 174, 40, 174, 40, 174, 40
        DC8 174, 40, 166, 40, 166, 40, 166, 40, 166, 40, 166, 40, 166, 40, 166
        DC8 40, 166, 40, 166, 40, 166, 40, 166, 40, 166, 40, 166, 40, 166, 40
        DC8 166, 40, 166, 40, 166, 40, 166, 40, 166, 41, 166, 40, 166, 40, 166
        DC8 40, 166, 40, 166, 40, 166, 41, 166, 41, 166, 41, 166, 41, 166, 41
        DC8 166, 41, 166, 41, 166, 41, 166, 9, 158, 41, 158, 41, 166, 41, 166
        DC8 41, 158, 40, 166, 40, 166, 40, 166, 40, 166, 40, 166, 40, 166, 40
        DC8 166, 40, 166, 41, 166, 41, 166, 9, 158, 9, 158, 9, 158, 9, 158, 9
        DC8 158, 41, 166, 41, 158, 9, 158, 9, 158, 9, 158, 9, 158, 9, 150, 9
        DC8 158, 9, 158, 9, 158, 9, 158, 9, 158, 9, 158, 9, 158, 9, 158, 9, 150
        DC8 9, 158, 9, 158, 9, 158, 9, 158, 9, 150, 9, 158, 41, 166, 41, 158
        DC8 41, 158, 41, 158, 41, 166, 9, 158, 41, 166, 9, 158, 9, 158, 233
        DC8 149, 9, 150, 9, 150, 9, 150, 9, 150, 9, 150, 9, 150, 9, 150, 9, 150
        DC8 9, 150, 9, 150, 234, 149, 9, 150, 233, 149, 9, 150, 233, 149, 233
        DC8 149, 234, 149, 234, 149, 234, 149, 234, 149, 234, 149, 234, 149, 9
        DC8 150, 9, 158, 41, 166, 9, 158, 9, 158, 9, 158, 9, 158, 9, 150, 234
        DC8 141, 234, 141, 234, 141, 234, 141, 234, 141, 234, 141, 234, 141
        DC8 234, 141, 234, 141, 234, 141, 234, 141, 234, 141, 234, 141, 234
        DC8 141, 234, 141, 234, 141, 234, 141, 234, 141, 234, 141, 234, 141
        DC8 234, 141, 234, 141, 9, 150, 9, 150, 9, 150, 233, 149, 9, 150, 233
        DC8 149, 233, 149, 234, 141, 234, 141, 234, 133, 202, 133, 202, 133
        DC8 234, 141, 202, 133, 234, 141, 234, 133, 202, 133, 202, 133, 234
        DC8 133, 234, 133, 202, 133, 234, 133, 202, 133, 202, 133, 202, 133
        DC8 202, 133, 202, 133, 234, 141, 233, 149, 9, 150, 234, 149, 234, 149
        DC8 234, 149, 234, 149, 234, 141, 234, 133, 202, 133, 202, 133, 202
        DC8 133, 202, 133, 202, 125, 202, 133, 202, 133, 202, 125, 202, 125
        DC8 202, 125, 202, 133, 202, 125, 202, 125, 203, 125, 202, 125, 202
        DC8 125, 202, 125, 203, 125, 202, 133, 234, 141, 234, 141, 234, 141
        DC8 234, 141, 234, 141, 234, 141, 234, 141, 234, 141, 202, 133, 171
        DC8 125, 171, 125, 202, 125, 203, 125, 171, 125, 203, 125, 203, 125
        DC8 134, 198, 134, 198, 134, 198, 134, 198, 134, 198, 134, 198, 134
        DC8 198, 102, 198, 102, 198, 102, 198, 102, 198, 102, 198, 102, 198
        DC8 102, 198, 102, 190, 102, 190, 134, 198, 102, 198, 102, 190, 102
        DC8 190, 102, 190, 102, 198, 102, 190, 102, 190, 103, 198, 102, 190
        DC8 102, 190, 102, 190, 102, 190, 102, 190, 102, 190, 103, 190, 103
        DC8 190, 103, 190, 103, 190, 103, 190, 103, 190, 103, 190, 103, 190
        DC8 103, 190, 103, 190, 103, 190, 103, 190, 102, 190, 103, 190, 103
        DC8 190, 103, 190, 103, 190, 103, 190, 103, 190, 103, 190, 103, 190
        DC8 103, 190, 103, 190, 103, 190, 102, 190, 103, 190, 103, 190, 103
        DC8 190, 103, 190, 103, 190, 103, 182, 103, 190, 103, 182, 103, 182, 71
        DC8 182, 71, 182, 103, 182, 71, 182, 71, 182, 71, 182, 71, 182, 103
        DC8 182, 71, 182, 71, 182, 71, 182, 103, 182, 71, 182, 72, 182, 71, 182
        DC8 71, 182, 72, 182, 71, 182, 71, 182, 71, 182, 71, 182, 71, 182, 71
        DC8 182, 71, 182, 71, 182, 71, 182, 71, 182, 71, 182, 71, 182, 71, 182
        DC8 71, 182, 72, 182, 71, 182, 71, 182, 72, 174, 72, 174, 72, 174, 72
        DC8 174, 40, 174, 40, 174, 40, 174, 40, 174, 40, 174, 40, 166, 40, 166
        DC8 40, 166, 40, 166, 40, 166, 40, 166, 40, 166, 40, 166, 40, 166, 40
        DC8 166, 40, 166, 40, 166, 40, 166, 40, 166, 40, 166, 40, 166, 40, 166
        DC8 40, 166, 41, 166, 40, 166, 40, 166, 41, 166, 40, 166, 40, 166, 40
        DC8 166, 40, 166, 40, 166, 40, 166, 40, 166, 41, 166, 41, 166, 41, 166
        DC8 41, 166, 41, 166, 41, 158, 41, 158, 41, 166, 40, 166, 41, 166, 40
        DC8 166, 40, 166, 40, 166, 40, 166, 40, 166, 40, 166, 40, 166, 40, 166
        DC8 40, 166, 41, 166, 9, 158, 9, 158, 9, 158, 9, 158, 41, 158, 9, 158
        DC8 9, 158, 9, 158, 41, 158, 9, 158, 9, 158, 9, 158, 9, 158, 41, 158, 9
        DC8 158, 9, 158, 9, 158, 9, 158, 9, 158, 9, 158, 9, 158, 9, 158, 9, 158
        DC8 9, 158, 9, 158, 9, 150, 9, 150, 9, 158, 9, 158, 41, 158, 41, 166
        DC8 41, 166, 41, 166, 41, 166, 9, 158, 41, 166, 9, 150, 233, 149, 9
        DC8 150, 9, 150, 9, 150, 9, 150, 9, 150, 9, 150, 9, 150, 9, 150, 9, 150
        DC8 9, 150, 9, 150, 9, 150, 233, 149, 9, 150, 233, 149, 234, 149, 9
        DC8 150, 9, 150, 233, 149, 234, 149, 234, 149, 233, 149, 9, 150, 9, 158
        DC8 9, 158, 9, 158, 9, 158, 9, 158, 9, 158, 9, 150, 234, 149, 234, 141
        DC8 234, 141, 234, 141, 234, 141, 234, 141, 234, 141, 234, 141, 234
        DC8 141, 234, 141, 234, 141, 234, 141, 234, 141, 234, 141, 234, 141
        DC8 234, 141, 234, 141, 234, 141, 234, 141, 234, 141, 234, 141, 234
        DC8 141, 9, 150, 9, 150, 9, 150, 9, 150, 233, 149, 9, 158, 233, 149
        DC8 234, 149, 202, 133, 202, 133, 234, 141, 234, 133, 234, 141, 234
        DC8 133, 202, 133, 234, 133, 202, 133, 202, 133, 234, 133, 202, 133
        DC8 234, 133, 202, 133, 234, 133, 202, 133, 234, 141, 202, 133, 202
        DC8 133, 234, 141, 233, 141, 234, 149, 234, 149, 234, 149, 10, 150, 234
        DC8 141, 234, 149, 234, 141, 202, 133, 202, 133, 202, 133, 202, 133
        DC8 202, 133, 202, 125, 202, 125, 202, 133, 202, 133, 202, 125, 202
        DC8 125, 202, 125, 203, 125, 202, 125, 202, 125, 202, 125, 202, 125
        DC8 202, 125, 202, 133, 234, 133, 234, 141, 234, 141, 234, 141, 234
        DC8 141, 234, 141, 234, 141, 234, 141, 234, 133, 202, 125, 171, 125
        DC8 202, 125, 202, 125, 203, 125, 203, 125, 203, 125, 203, 125, 203
        DC8 125, 134, 198, 134, 198, 134, 198, 134, 198, 134, 198, 134, 198
        DC8 134, 198, 102, 198, 102, 198, 102, 198, 102, 198, 102, 198, 102
        DC8 198, 102, 198, 102, 190, 102, 198, 102, 198, 102, 198, 102, 198
        DC8 102, 190, 102, 190, 102, 198, 102, 190, 102, 190, 102, 190, 103
        DC8 190, 102, 190, 102, 190, 102, 190, 103, 190, 102, 190, 103, 190
        DC8 103, 190, 103, 190, 102, 190, 103, 190, 103, 190, 103, 190, 103
        DC8 190, 103, 190, 103, 190, 103, 190, 103, 182, 103, 190, 103, 182
        DC8 103, 190, 103, 182, 103, 190, 71, 182, 103, 190, 103, 190, 103, 182
        DC8 103, 190, 71, 182, 103, 182, 71, 182, 103, 190, 103, 190, 103, 182
        DC8 103, 182, 103, 190, 103, 182, 103, 182, 103, 182, 103, 190, 103
        DC8 182, 103, 182, 103, 182, 71, 182, 103, 182, 103, 182, 103, 182, 103
        DC8 182, 103, 182, 103, 182, 71, 182, 71, 182, 71, 182, 71, 182, 71
        DC8 182, 71, 182, 71, 182, 71, 182, 71, 182, 71, 182, 71, 182, 72, 182
        DC8 71, 182, 71, 182, 72, 182, 71, 182, 72, 174, 72, 182, 71, 174, 72
        DC8 174, 72, 174, 72, 174, 72, 174, 72, 174, 72, 174, 72, 174, 72, 174
        DC8 40, 166, 40, 174, 40, 174, 40, 174, 40, 174, 40, 174, 40, 166, 40
        DC8 174, 41, 166, 40, 166, 40, 166, 40, 166, 41, 166, 40, 166, 40, 174
        DC8 40, 166, 40, 166, 40, 166, 40, 166, 40, 166, 40, 166, 40, 166, 40
        DC8 166, 40, 166, 41, 166, 41, 166, 40, 166, 41, 166, 40, 166, 40, 166
        DC8 41, 166, 40, 166, 40, 166, 40, 166, 40, 166, 40, 166, 41, 166, 41
        DC8 166, 40, 166, 41, 166, 41, 166, 40, 166, 40, 166, 40, 166, 40, 166
        DC8 40, 166, 40, 174, 40, 166, 40, 166, 40, 166, 41, 166, 41, 166, 9
        DC8 158, 9, 158, 9, 158, 41, 166, 41, 158, 9, 158, 9, 158, 9, 158, 9
        DC8 158, 41, 158, 9, 158, 9, 158, 9, 158, 9, 158, 9, 158, 41, 158, 9
        DC8 158, 9, 158, 9, 158, 9, 158, 9, 158, 9, 158, 9, 158, 9, 158, 9, 158
        DC8 9, 150, 9, 150, 9, 158, 9, 158, 9, 158, 41, 166, 41, 166, 41, 166
        DC8 40, 166, 41, 158, 9, 158, 9, 158, 9, 150, 9, 150, 10, 158, 233, 149
        DC8 9, 150, 9, 150, 9, 150, 9, 150, 9, 150, 9, 150, 9, 150, 9, 150, 9
        DC8 150, 9, 150, 9, 150, 9, 150, 9, 150, 233, 149, 9, 150, 234, 149
        DC8 234, 149, 9, 150, 234, 149, 233, 149, 9, 158, 9, 158, 41, 158, 9
        DC8 158, 9, 158, 9, 158, 9, 158, 9, 150, 234, 149, 234, 141, 234, 141
        DC8 234, 141, 234, 141, 234, 141, 234, 141, 234, 141, 234, 141, 234
        DC8 141, 234, 141, 234, 141, 234, 141, 234, 141, 234, 141, 234, 141
        DC8 234, 141, 234, 141, 234, 141, 234, 141, 234, 141, 234, 149, 9, 150
        DC8 9, 150, 9, 150, 233, 149, 9, 150, 233, 149, 233, 149, 233, 149, 234
        DC8 141, 234, 141, 234, 133, 234, 133, 234, 141, 234, 141, 234, 141
        DC8 202, 133, 234, 133, 234, 141, 202, 133, 202, 133, 202, 133, 202
        DC8 133, 202, 133, 202, 133, 202, 133, 202, 133, 202, 133, 234, 141
        DC8 234, 141, 233, 149, 233, 149, 234, 149, 234, 149, 234, 149, 233
        DC8 149, 234, 141, 202, 133, 202, 133, 202, 133, 202, 133, 202, 133
        DC8 202, 133, 202, 133, 202, 133, 202, 133, 202, 133, 202, 125, 202
        DC8 125, 202, 125, 202, 125, 202, 125, 202, 125, 202, 133, 203, 125
        DC8 203, 125, 234, 133, 234, 141, 234, 141, 234, 141, 234, 141, 234
        DC8 141, 234, 141, 234, 141, 234, 141, 202, 133, 170, 125, 170, 125
        DC8 202, 125, 202, 125, 203, 125, 203, 125, 171, 125, 203, 125, 203
        DC8 125, 203, 125, 134, 198, 134, 198, 134, 198, 134, 198, 134, 198
        DC8 134, 198, 134, 198, 102, 190, 102, 198, 102, 198, 102, 198, 102
        DC8 198, 102, 198, 134, 198, 102, 198, 102, 198, 102, 198, 134, 190
        DC8 102, 190, 102, 198, 135, 198, 102, 190, 103, 190, 102, 190, 102
        DC8 190, 102, 190, 102, 190, 103, 190, 102, 190, 102, 190, 102, 190
        DC8 103, 190, 103, 190, 103, 190, 103, 190, 103, 190, 103, 190, 103
        DC8 190, 103, 190, 103, 190, 103, 190, 103, 190, 103, 190, 103, 182
        DC8 103, 190, 103, 190, 103, 190, 103, 190, 103, 182, 103, 182, 103
        DC8 182, 71, 182, 103, 182, 103, 182, 71, 182, 71, 182, 71, 182, 71
        DC8 182, 71, 182, 71, 182, 71, 182, 103, 182, 103, 182, 71, 182, 71
        DC8 182, 71, 182, 71, 182, 71, 182, 71, 182, 71, 182, 71, 182, 71, 182
        DC8 71, 182, 71, 182, 71, 182, 72, 182, 71, 182, 71, 182, 72, 182, 72
        DC8 182, 72, 182, 72, 182, 72, 182, 72, 174, 72, 174, 71, 174, 71, 174
        DC8 72, 174, 72, 174, 72, 174, 72, 174, 72, 174, 72, 174, 40, 174, 72
        DC8 174, 72, 174, 72, 174, 72, 174, 72, 174, 72, 174, 72, 174, 72, 174
        DC8 72, 174, 40, 174, 72, 174, 40, 174, 40, 174, 40, 174, 40, 174, 40
        DC8 174, 40, 166, 40, 166, 40, 166, 40, 166, 40, 166, 40, 166, 40, 166
        DC8 40, 166, 40, 166, 40, 166, 40, 166, 40, 166, 41, 166, 40, 166, 40
        DC8 166, 40, 166, 40, 166, 40, 166, 41, 166, 40, 166, 40, 166, 41, 166
        DC8 41, 166, 40, 166, 40, 166, 40, 166, 40, 166, 40, 166, 40, 166, 41
        DC8 166, 40, 166, 40, 166, 40, 166, 40, 166, 40, 174, 40, 166, 40, 166
        DC8 40, 166, 40, 166, 41, 166, 9, 158, 40, 166, 9, 158, 41, 158, 41
        DC8 158, 41, 166, 9, 158, 9, 158, 9, 158, 41, 158, 9, 158, 41, 158, 9
        DC8 158, 41, 158, 9, 158, 9, 158, 9, 158, 9, 158, 41, 158, 9, 158, 9
        DC8 158, 9, 158, 9, 158, 9, 158, 9, 158, 9, 158, 9, 158, 9, 158, 9, 158
        DC8 9, 158, 9, 158, 41, 166, 41, 166, 41, 166, 41, 166, 40, 166, 41
        DC8 158, 9, 158, 9, 158, 9, 158, 9, 150, 9, 150, 9, 150, 233, 149, 9
        DC8 150, 9, 150, 9, 150, 9, 150, 9, 150, 9, 150, 9, 150, 9, 150, 233
        DC8 149, 9, 150, 233, 149, 233, 149, 9, 150, 9, 150, 9, 150, 233, 149
        DC8 9, 150, 9, 150, 9, 150, 9, 158, 9, 158, 9, 158, 9, 158, 9, 158, 9
        DC8 158, 9, 158, 9, 150, 234, 149, 234, 141, 234, 141, 234, 149, 234
        DC8 141, 234, 141, 234, 141, 234, 141, 234, 141, 234, 141, 234, 141
        DC8 234, 141, 234, 141, 234, 141, 234, 141, 234, 141, 234, 141, 234
        DC8 141, 234, 141, 234, 141, 234, 141, 234, 149, 9, 150, 9, 150, 9, 150
        DC8 9, 150, 9, 150, 9, 150, 233, 149, 234, 141, 234, 141, 202, 133, 234
        DC8 141, 202, 133, 234, 141, 234, 141, 234, 141, 234, 141, 234, 141
        DC8 234, 133, 234, 133, 234, 133, 234, 141, 202, 133, 202, 133, 234
        DC8 133, 234, 133, 202, 133, 202, 133, 234, 133, 234, 141, 234, 149
        DC8 234, 149, 234, 149, 234, 149, 234, 149, 233, 149, 234, 149, 234
        DC8 141, 202, 133, 202, 133, 202, 133, 202, 133, 202, 133, 202, 133
        DC8 202, 133, 202, 133, 202, 133, 202, 125, 202, 125, 202, 133, 202
        DC8 125, 202, 125, 202, 125, 202, 125, 202, 125, 203, 125, 202, 133
        DC8 234, 141, 234, 141, 234, 141, 234, 141, 234, 141, 234, 141, 234
        DC8 141, 234, 141, 234, 141, 202, 125, 203, 125, 202, 125, 202, 125
        DC8 202, 125, 203, 125, 203, 125, 202, 125, 203, 125, 203, 125, 203
        DC8 125, 203, 125, 134, 198, 134, 198, 134, 198, 134, 198, 102, 198
        DC8 134, 198, 134, 198, 102, 198, 102, 198, 102, 198, 134, 198, 102
        DC8 198, 102, 190, 102, 198, 102, 198, 102, 198, 134, 198, 102, 190
        DC8 134, 198, 102, 190, 102, 190, 102, 190, 102, 198, 102, 198, 102
        DC8 198, 102, 190, 102, 190, 102, 190, 102, 190, 102, 190, 102, 190
        DC8 103, 190, 103, 190, 103, 190, 103, 190, 103, 190, 103, 190, 103
        DC8 190, 103, 190, 103, 190, 103, 190, 103, 182, 103, 190, 103, 190
        DC8 103, 190, 103, 190, 103, 190, 103, 182, 103, 190, 103, 190, 71, 182
        DC8 103, 182, 103, 182, 103, 190, 103, 182, 71, 182, 103, 182, 71, 182
        DC8 103, 182, 71, 182, 71, 182, 71, 182, 71, 182, 71, 182, 71, 182, 103
        DC8 182, 71, 182, 71, 182, 71, 182, 71, 182, 72, 182, 72, 182, 71, 182
        DC8 71, 182, 71, 182, 72, 174, 72, 182, 71, 182, 72, 182, 72, 182, 72
        DC8 182, 72, 174, 72, 174, 72, 182, 72, 174, 72, 174, 72, 174, 72, 174
        DC8 72, 174, 72, 174, 72, 174, 72, 174, 72, 174, 72, 174, 72, 174, 40
        DC8 174, 72, 174, 72, 174, 72, 174, 40, 174, 72, 174, 72, 174, 72, 174
        DC8 72, 174, 72, 174, 40, 174, 40, 174, 40, 174, 40, 174, 40, 174, 40
        DC8 174, 40, 166, 40, 166, 40, 174, 40, 166, 40, 166, 40, 166, 40, 166
        DC8 40, 166, 40, 166, 40, 166, 40, 166, 40, 166, 40, 166, 40, 166, 41
        DC8 166, 40, 166, 41, 166, 41, 166, 40, 166, 40, 166, 40, 166, 41, 166
        DC8 40, 166, 40, 166, 40, 166, 40, 166, 40, 166, 40, 166, 40, 174, 40
        DC8 174, 40, 166, 40, 166, 40, 166, 40, 166, 40, 166, 40, 166, 40, 166
        DC8 41, 166, 41, 166, 41, 166, 41, 166, 41, 158, 41, 158, 41, 166, 41
        DC8 166, 9, 158, 9, 158, 9, 158, 41, 158, 9, 158, 41, 158, 9, 158, 9
        DC8 158, 9, 158, 9, 158, 9, 158, 41, 158, 41, 158, 9, 158, 9, 158, 9
        DC8 158, 9, 158, 9, 158, 9, 158, 9, 158, 9, 158, 41, 158, 41, 166, 41
        DC8 166, 41, 166, 41, 166, 41, 166, 41, 166, 9, 158, 9, 158, 9, 150
        DC8 233, 149, 9, 150, 9, 150, 9, 150, 9, 158, 9, 158, 9, 150, 233, 149
        DC8 9, 150, 9, 150, 9, 150, 9, 150, 233, 149, 9, 150, 9, 150, 9, 150
        DC8 234, 149, 9, 150, 9, 150, 9, 150, 9, 150, 233, 149, 9, 150, 9, 150
        DC8 9, 158, 9, 158, 9, 158, 9, 158, 9, 158, 9, 158, 9, 158, 9, 150, 233
        DC8 149, 234, 149, 234, 141, 234, 149, 10, 150, 234, 141, 234, 141, 234
        DC8 141, 234, 141, 234, 141, 234, 141, 234, 141, 234, 141, 234, 141
        DC8 234, 141, 234, 141, 234, 141, 234, 141, 234, 141, 234, 141, 234
        DC8 141, 234, 141, 233, 149, 9, 158, 9, 150, 9, 150, 9, 150, 9, 150
        DC8 234, 149, 233, 149, 234, 141, 234, 141, 234, 141, 234, 141, 234
        DC8 141, 234, 141, 234, 133, 234, 133, 234, 133, 234, 141, 234, 141
        DC8 202, 133, 202, 133, 234, 133, 234, 133, 202, 133, 202, 133, 202
        DC8 133, 202, 133, 202, 133, 234, 141, 233, 149, 233, 149, 233, 149
        DC8 234, 149, 234, 149, 234, 149, 234, 149, 234, 141, 202, 133, 202
        DC8 133, 202, 133, 202, 133, 202, 133, 202, 133, 202, 133, 202, 133
        DC8 202, 133, 202, 133, 202, 125, 202, 125, 202, 133, 202, 125, 202
        DC8 125, 202, 125, 202, 125, 202, 125, 202, 125, 234, 133, 234, 141
        DC8 234, 141, 234, 141, 234, 141, 234, 141, 234, 141, 234, 141, 234
        DC8 141, 202, 133, 202, 125, 202, 125, 202, 125, 203, 125, 202, 125
        DC8 202, 125, 202, 125, 203, 125, 203, 125, 202, 125, 203, 125, 203
        DC8 125, 171, 125, 134, 198, 134, 198, 134, 198, 134, 198, 134, 198
        DC8 102, 198, 102, 198, 102, 198, 102, 198, 134, 198, 102, 198, 102
        DC8 198, 102, 198, 102, 198, 102, 198, 102, 198, 134, 198, 102, 190
        DC8 102, 190, 102, 190, 102, 198, 102, 190, 102, 190, 102, 190, 102
        DC8 190, 102, 190, 102, 190, 102, 190, 102, 190, 102, 190, 102, 190
        DC8 103, 190, 102, 190, 103, 190, 103, 190, 103, 190, 103, 190, 103
        DC8 190, 103, 190, 103, 190, 103, 190, 71, 182, 103, 190, 103, 190, 103
        DC8 190, 103, 190, 103, 190, 103, 182, 103, 190, 71, 182, 103, 190, 71
        DC8 182, 103, 190, 103, 182, 103, 182, 71, 182, 103, 182, 103, 182, 71
        DC8 182, 71, 182, 71, 182, 71, 182, 71, 182, 71, 182, 71, 182, 71, 182
        DC8 71, 182, 103, 182, 71, 182, 71, 182, 71, 182, 71, 182, 71, 182, 71
        DC8 182, 72, 182, 71, 182, 72, 182, 72, 182, 72, 182, 72, 182, 72, 182
        DC8 72, 182, 72, 174, 72, 182, 72, 174, 72, 174, 72, 174, 72, 174, 72
        DC8 174, 72, 174, 72, 174, 72, 174, 72, 174, 72, 174, 40, 174, 72, 174
        DC8 72, 174, 40, 174, 72, 174, 72, 174, 72, 174, 72, 174, 72, 174, 72
        DC8 174, 72, 174, 72, 174, 40, 174, 40, 174, 40, 166, 40, 174, 40, 174
        DC8 40, 166, 40, 166, 40, 166, 40, 166, 40, 166, 40, 174, 40, 166, 40
        DC8 166, 40, 166, 40, 166, 40, 166, 40, 166, 40, 166, 41, 166, 40, 166
        DC8 41, 166, 40, 166, 40, 166, 40, 166, 40, 166, 40, 166, 40, 166, 40
        DC8 174, 72, 174, 40, 174, 40, 174, 40, 174, 40, 174, 40, 174, 40, 166
        DC8 40, 166, 40, 166, 40, 166, 41, 166, 41, 166, 41, 158, 41, 158, 41
        DC8 166, 41, 158, 41, 166, 41, 158, 41, 166, 41, 158, 41, 166, 9, 158
        DC8 41, 158, 9, 158, 41, 158, 9, 158, 9, 158, 9, 158, 41, 158, 9, 158
        DC8 41, 158, 9, 158, 9, 158, 9, 158, 9, 158, 9, 158, 9, 158, 9, 158, 9
        DC8 158, 9, 158, 41, 158, 41, 166, 41, 166, 41, 166, 41, 166, 41, 158
        DC8 41, 166, 41, 166, 41, 158, 9, 158, 9, 150, 9, 158, 9, 158, 9, 158
        DC8 9, 158, 9, 158, 9, 150, 9, 158, 9, 150, 9, 150, 233, 149, 9, 150, 9
        DC8 150, 9, 150, 9, 150, 9, 150, 9, 150, 9, 150, 9, 150, 9, 150, 233
        DC8 149, 233, 149, 234, 149, 9, 150, 9, 158, 9, 158, 9, 158, 41, 158, 9
        DC8 158, 9, 158, 9, 158, 9, 158, 233, 149, 234, 141, 234, 141, 234, 149
        DC8 234, 149, 234, 141, 234, 141, 234, 141, 234, 141, 10, 142, 234, 141
        DC8 234, 141, 234, 149, 234, 141, 234, 141, 234, 141, 234, 141, 234
        DC8 141, 234, 141, 234, 141, 234, 141, 234, 141, 234, 149, 233, 149, 9
        DC8 150, 9, 150, 10, 158, 9, 158, 9, 150, 9, 150, 233, 149, 234, 141
        DC8 234, 141, 234, 141, 234, 141, 234, 133, 234, 141, 234, 141, 202
        DC8 133, 234, 141, 234, 141, 234, 133, 202, 133, 202, 133, 234, 141
        DC8 202, 133, 202, 133, 234, 141, 234, 133, 202, 133, 234, 133, 234
        DC8 141, 233, 149, 233, 149, 233, 149, 233, 149, 234, 149, 233, 149, 9
        DC8 150, 233, 141, 202, 133, 202, 133, 202, 133, 202, 133, 202, 133
        DC8 202, 133, 202, 133, 202, 133, 202, 133, 202, 133, 202, 133, 202
        DC8 133, 202, 125, 202, 125, 202, 133, 202, 133, 202, 125, 202, 125
        DC8 202, 125, 202, 133, 234, 141, 234, 141, 234, 141, 234, 141, 234
        DC8 141, 234, 141, 234, 141, 234, 141, 202, 133, 203, 125, 203, 125
        DC8 202, 125, 202, 125, 202, 125, 203, 125, 202, 125, 202, 125, 202
        DC8 125, 202, 125, 203, 125, 203, 125, 203, 125, 203, 125, 203, 125
        DC8 134, 198, 134, 198, 102, 198, 134, 198, 102, 198, 102, 198, 102
        DC8 198, 102, 198, 102, 198, 102, 198, 102, 198, 102, 198, 134, 198
        DC8 102, 190, 102, 198, 134, 198, 102, 190, 102, 190, 102, 190, 102
        DC8 190, 102, 190, 102, 190, 102, 190, 103, 190, 102, 190, 102, 190
        DC8 102, 190, 102, 190, 102, 190, 102, 190, 103, 190, 102, 190, 102
        DC8 190, 102, 190, 103, 190, 102, 190, 103, 190, 103, 190, 103, 190
        DC8 103, 190, 103, 190, 103, 190, 103, 190, 103, 190, 103, 190, 103
        DC8 190, 103, 190, 71, 182, 71, 182, 103, 190, 71, 182, 103, 182, 103
        DC8 182, 103, 182, 71, 182, 71, 182, 103, 182, 71, 182, 103, 182, 103
        DC8 182, 71, 182, 71, 182, 71, 182, 71, 182, 71, 182, 71, 182, 71, 182
        DC8 71, 182, 71, 182, 71, 182, 71, 182, 71, 182, 71, 182, 71, 182, 72
        DC8 182, 72, 182, 71, 182, 72, 182, 72, 182, 72, 174, 72, 182, 72, 182
        DC8 72, 182, 72, 182, 71, 174, 72, 174, 72, 174, 72, 174, 72, 174, 72
        DC8 174, 72, 174, 72, 174, 72, 174, 72, 174, 72, 174, 72, 174, 72, 174
        DC8 72, 174, 40, 174, 72, 174, 72, 174, 72, 174, 40, 174, 40, 174, 40
        DC8 174, 72, 174, 72, 174, 72, 174, 72, 174, 40, 166, 40, 174, 40, 166
        DC8 40, 166, 40, 166, 40, 166, 40, 166, 40, 166, 40, 166, 40, 166, 40
        DC8 166, 40, 166, 40, 166, 40, 166, 40, 166, 40, 166, 40, 166, 40, 166
        DC8 40, 174, 40, 174, 40, 174, 40, 174, 40, 174, 40, 174, 72, 174, 40
        DC8 174, 40, 166, 40, 166, 40, 166, 40, 166, 40, 166, 41, 166, 40, 166
        DC8 40, 166, 41, 166, 40, 166, 41, 166, 9, 158, 41, 158, 41, 166, 41
        DC8 166, 41, 158, 40, 158, 41, 158, 41, 166, 9, 158, 9, 158, 9, 158, 9
        DC8 158, 9, 158, 9, 158, 9, 158, 9, 158, 41, 158, 41, 158, 9, 158, 9
        DC8 158, 9, 158, 9, 158, 9, 158, 9, 158, 9, 158, 41, 166, 41, 166, 41
        DC8 166, 40, 166, 41, 166, 41, 166, 41, 166, 41, 166, 41, 158, 9, 158
        DC8 9, 158, 9, 158, 9, 158, 9, 158, 9, 158, 9, 158, 9, 158, 9, 158, 9
        DC8 150, 9, 150, 9, 150, 9, 150, 9, 150, 9, 150, 9, 150, 9, 150, 9, 150
        DC8 9, 150, 9, 150, 233, 149, 9, 150, 9, 150, 234, 149, 233, 149, 9
        DC8 150, 9, 158, 9, 158, 41, 158, 41, 158, 9, 158, 41, 158, 9, 158, 9
        DC8 158, 9, 150, 234, 149, 9, 150, 234, 149, 234, 149, 234, 141, 234
        DC8 149, 234, 141, 234, 149, 234, 141, 233, 149, 234, 141, 234, 141
        DC8 234, 141, 234, 141, 234, 141, 234, 141, 234, 141, 234, 141, 234
        DC8 141, 234, 141, 234, 141, 234, 141, 233, 149, 9, 158, 9, 158, 9, 150
        DC8 9, 158, 9, 150, 9, 150, 233, 149, 234, 141, 234, 141, 234, 141, 234
        DC8 141, 234, 141, 234, 141, 234, 141, 234, 133, 234, 141, 234, 141
        DC8 234, 141, 234, 133, 202, 133, 234, 141, 234, 141, 202, 133, 234
        DC8 133, 234, 141, 202, 133, 202, 133, 234, 141, 234, 141, 233, 149
        DC8 233, 149, 233, 149, 233, 149, 233, 149, 234, 149, 233, 149, 234
        DC8 141, 202, 133, 202, 133, 202, 133, 202, 133, 202, 133, 202, 133
        DC8 202, 133, 202, 133, 202, 133, 203, 133, 202, 133, 202, 133, 202
        DC8 133, 202, 133, 202, 133, 202, 125, 202, 133, 202, 125, 202, 133
        DC8 234, 141, 234, 141, 234, 141, 234, 141, 234, 141, 234, 141, 234
        DC8 141, 234, 141, 234, 141, 202, 133, 202, 125, 202, 125, 202, 125
        DC8 203, 125, 203, 125, 202, 125, 202, 125, 170, 125, 202, 125, 203
        DC8 125, 202, 125, 202, 125, 203, 125, 170, 125, 203, 125, 171, 125
        DC8 134, 198, 134, 198, 134, 198, 134, 198, 134, 198, 134, 198, 102
        DC8 198, 102, 198, 102, 198, 102, 198, 102, 198, 102, 198, 102, 198
        DC8 102, 190, 102, 198, 102, 198, 102, 190, 102, 190, 102, 198, 102
        DC8 198, 102, 190, 102, 190, 102, 190, 102, 190, 102, 190, 103, 190
        DC8 102, 190, 102, 190, 102, 190, 102, 190, 102, 190, 102, 190, 102
        DC8 190, 102, 190, 102, 190, 102, 190, 103, 190, 102, 190, 103, 190
        DC8 102, 190, 103, 190, 102, 190, 103, 190, 103, 190, 103, 190, 103
        DC8 190, 71, 182, 103, 190, 71, 182, 71, 182, 103, 182, 103, 182, 71
        DC8 182, 103, 182, 71, 182, 71, 182, 103, 182, 71, 182, 71, 182, 103
        DC8 182, 71, 182, 71, 182, 71, 182, 71, 182, 71, 182, 71, 182, 71, 182
        DC8 71, 182, 71, 182, 71, 182, 71, 182, 71, 182, 71, 182, 71, 182, 71
        DC8 182, 72, 182, 72, 182, 72, 174, 72, 174, 72, 182, 72, 182, 72, 174
        DC8 72, 174, 72, 182, 72, 174, 72, 174, 72, 174, 72, 174, 72, 174, 72
        DC8 174, 72, 174, 72, 174, 72, 174, 72, 174, 72, 174, 72, 174, 72, 174
        DC8 72, 174, 72, 174, 72, 174, 40, 174, 72, 174, 40, 174, 40, 174, 72
        DC8 174, 40, 174, 40, 174, 40, 174, 72, 174, 72, 174, 40, 174, 40, 166
        DC8 40, 166, 40, 166, 40, 166, 40, 166, 40, 166, 40, 166, 40, 166, 40
        DC8 166, 40, 166, 40, 166, 40, 174, 40, 174, 72, 174, 72, 174, 72, 174
        DC8 72, 174, 72, 174, 40, 174, 40, 174, 40, 166, 40, 166, 40, 166, 40
        DC8 166, 40, 166, 41, 166, 40, 166, 41, 166, 41, 166, 40, 166, 41, 158
        DC8 41, 158, 41, 166, 41, 166, 41, 166, 41, 166, 41, 166, 41, 158, 41
        DC8 158, 41, 158, 41, 158, 41, 158, 41, 166, 40, 166, 9, 158, 9, 158
        DC8 41, 158, 41, 158, 9, 158, 9, 158, 41, 158, 9, 158, 9, 158, 9, 158
        DC8 9, 158, 9, 158, 41, 158, 40, 158, 41, 166, 40, 166, 40, 166, 41
        DC8 166, 40, 166, 41, 166, 40, 166, 41, 166, 9, 158, 9, 158, 9, 150, 9
        DC8 158, 9, 158, 9, 158, 9, 158, 9, 150, 9, 158, 9, 150, 9, 158, 9, 158
        DC8 9, 150, 9, 150, 9, 150, 9, 150, 9, 150, 9, 150, 9, 150, 9, 150, 9
        DC8 150, 233, 149, 9, 150, 233, 149, 9, 150, 233, 149, 9, 150, 9, 158
        DC8 41, 158, 9, 158, 9, 158, 41, 158, 9, 158, 9, 158, 9, 158, 9, 150
        DC8 234, 149, 233, 149, 9, 150, 234, 149, 9, 150, 9, 150, 234, 141, 234
        DC8 141, 10, 142, 234, 149, 234, 141, 234, 149, 234, 141, 234, 141, 234
        DC8 141, 234, 141, 234, 141, 234, 141, 234, 141, 234, 141, 234, 141
        DC8 233, 149, 9, 150, 9, 158, 9, 158, 9, 150, 9, 158, 9, 158, 9, 150
        DC8 233, 149, 234, 141, 234, 141, 234, 141, 234, 141, 234, 141, 234
        DC8 141, 234, 141, 234, 141, 234, 141, 234, 141, 234, 141, 234, 141
        DC8 202, 133, 234, 141, 234, 141, 234, 133, 234, 133, 202, 133, 234
        DC8 133, 202, 133, 234, 133, 234, 141, 233, 149, 233, 149, 233, 149
        DC8 233, 149, 233, 149, 233, 149, 234, 141, 234, 141, 202, 133, 202
        DC8 133, 202, 133, 202, 133, 202, 133, 202, 133, 202, 133, 202, 133
        DC8 202, 133, 202, 133, 202, 133, 202, 133, 202, 133, 202, 133, 202
        DC8 133, 202, 133, 202, 133, 202, 125, 202, 125, 202, 133, 234, 141
        DC8 234, 141, 234, 141, 234, 141, 234, 141, 234, 141, 234, 141, 234
        DC8 141, 234, 133, 202, 125, 202, 125, 202, 125, 203, 125, 203, 125
        DC8 202, 125, 202, 125, 202, 125, 203, 125, 202, 125, 203, 125, 202
        DC8 125, 202, 125, 202, 125, 202, 125, 171, 125, 171, 125, 202, 125
        DC8 134, 198, 134, 198, 134, 198, 134, 198, 134, 198, 134, 198, 134
        DC8 198, 102, 198, 134, 198, 102, 198, 102, 190, 102, 198, 102, 198
        DC8 102, 198, 134, 198, 102, 198, 102, 198, 102, 198, 102, 190, 102
        DC8 190, 102, 198, 102, 190, 102, 190, 102, 190, 102, 190, 102, 198
        DC8 102, 190, 103, 190, 102, 190, 102, 190, 103, 190, 103, 190, 103
        DC8 190, 103, 190, 102, 190, 103, 190, 103, 190, 103, 190, 103, 190
        DC8 103, 190, 102, 190, 103, 190, 103, 190, 103, 190, 103, 190, 103
        DC8 190, 103, 190, 71, 182, 103, 182, 103, 190, 103, 190, 103, 190, 103
        DC8 190, 71, 182, 71, 182, 103, 182, 71, 182, 71, 182, 103, 182, 71
        DC8 182, 71, 182, 71, 182, 71, 182, 71, 182, 71, 182, 71, 182, 71, 182
        DC8 71, 182, 71, 182, 71, 182, 71, 182, 71, 182, 71, 182, 71, 182, 71
        DC8 182, 71, 182, 71, 182, 72, 182, 71, 182, 72, 182, 72, 174, 72, 182
        DC8 72, 182, 72, 174, 71, 174, 72, 174, 72, 174, 72, 174, 72, 174, 72
        DC8 174, 72, 174, 72, 174, 72, 174, 72, 174, 40, 174, 72, 174, 72, 174
        DC8 72, 174, 72, 174, 72, 174, 72, 174, 72, 174, 40, 174, 72, 174, 40
        DC8 174, 40, 174, 40, 174, 40, 174, 72, 174, 40, 174, 40, 174, 72, 174
        DC8 72, 174, 40, 174, 40, 166, 40, 174, 40, 174, 72, 174, 72, 174, 72
        DC8 174, 72, 174, 72, 174, 72, 174, 72, 174, 40, 174, 72, 174, 40, 174
        DC8 40, 166, 40, 166, 40, 166, 40, 166, 40, 166, 40, 166, 40, 166, 40
        DC8 166, 41, 166, 41, 166, 41, 166, 40, 166, 41, 166, 41, 166, 41, 166
        DC8 41, 166, 41, 158, 41, 158, 41, 166, 41, 166, 41, 166, 41, 166, 41
        DC8 166, 41, 166, 41, 158, 41, 158, 41, 158, 41, 158, 9, 158, 9, 158, 9
        DC8 158, 41, 166, 9, 158, 9, 158, 9, 158, 9, 158, 9, 158, 41, 166, 41
        DC8 166, 40, 166, 40, 166, 40, 166, 41, 166, 40, 166, 41, 166, 40, 166
        DC8 41, 166, 9, 158, 41, 158, 9, 158, 9, 158, 9, 158, 9, 158, 9, 158, 9
        DC8 158, 9, 158, 9, 158, 9, 158, 9, 150, 9, 150, 9, 150, 9, 150, 9, 158
        DC8 9, 150, 9, 150, 10, 150, 10, 150, 233, 149, 9, 150, 9, 150, 233
        DC8 149, 9, 150, 9, 150, 9, 150, 9, 158, 9, 158, 41, 158, 9, 158, 9
        DC8 158, 9, 158, 41, 158, 9, 158, 9, 158, 9, 150, 9, 150, 233, 149, 234
        DC8 149, 234, 149, 9, 150, 233, 149, 233, 149, 234, 149, 233, 149, 234
        DC8 149, 234, 149, 234, 141, 234, 141, 10, 142, 234, 141, 234, 141, 234
        DC8 141, 234, 141, 234, 141, 234, 141, 234, 141, 234, 141, 9, 150, 9
        DC8 150, 9, 158, 9, 158, 9, 158, 9, 158, 9, 150, 9, 150, 234, 149, 234
        DC8 141, 234, 141, 234, 141, 234, 141, 234, 141, 234, 141, 234, 141
        DC8 234, 133, 234, 141, 234, 141, 234, 141, 234, 141, 234, 141, 234
        DC8 141, 234, 141, 234, 133, 234, 133, 202, 133, 234, 133, 234, 141
        DC8 234, 141, 234, 149, 9, 150, 233, 149, 233, 149, 233, 149, 9, 150
        DC8 233, 149, 234, 149, 234, 141, 202, 133, 202, 133, 202, 133, 202
        DC8 133, 202, 133, 202, 133, 202, 133, 202, 133, 202, 133, 202, 133
        DC8 202, 133, 202, 133, 202, 133, 202, 133, 202, 133, 202, 133, 202
        DC8 133, 202, 125, 202, 133, 234, 141, 233, 141, 234, 141, 234, 141
        DC8 233, 141, 234, 141, 234, 141, 234, 141, 234, 141, 202, 125, 202
        DC8 125, 203, 125, 203, 125, 202, 125, 202, 125, 203, 125, 202, 125
        DC8 202, 125, 202, 125, 202, 125, 203, 125, 171, 125, 203, 125, 203
        DC8 125, 171, 125, 203, 125, 203, 125, 202, 133, 234, 133, 134, 198
        DC8 134, 198, 134, 198, 134, 198, 134, 198, 134, 198, 134, 198, 102
        DC8 198, 102, 198, 102, 198, 102, 198, 102, 198, 102, 198, 102, 198
        DC8 102, 190, 102, 190, 102, 190, 102, 190, 102, 190, 102, 190, 103
        DC8 190, 102, 198, 102, 190, 103, 190, 102, 190, 102, 190, 102, 190
        DC8 103, 190, 102, 190, 102, 190, 102, 190, 103, 190, 103, 190, 103
        DC8 190, 103, 190, 103, 190, 103, 190, 103, 190, 103, 190, 103, 190
        DC8 103, 190, 103, 190, 103, 190, 103, 190, 103, 190, 103, 190, 103
        DC8 190, 103, 190, 103, 190, 103, 190, 103, 190, 103, 190, 103, 190
        DC8 103, 190, 103, 182, 103, 182, 71, 182, 71, 182, 71, 182, 103, 182
        DC8 71, 182, 71, 182, 71, 182, 71, 182, 71, 182, 71, 182, 71, 182, 71
        DC8 182, 71, 182, 71, 182, 71, 182, 72, 182, 71, 182, 71, 182, 71, 174
        DC8 71, 182, 71, 182, 71, 182, 72, 182, 72, 174, 72, 174, 72, 182, 72
        DC8 182, 72, 174, 71, 174, 72, 174, 72, 174, 72, 182, 72, 174, 40, 174
        DC8 72, 174, 72, 174, 72, 174, 72, 174, 72, 174, 40, 174, 72, 174, 72
        DC8 174, 72, 174, 72, 174, 72, 174, 72, 174, 72, 174, 40, 174, 40, 174
        DC8 72, 174, 72, 174, 72, 174, 40, 174, 72, 174, 72, 174, 72, 174, 72
        DC8 174, 72, 174, 72, 174, 72, 174, 72, 174, 72, 174, 72, 174, 72, 174
        DC8 40, 174, 40, 174, 40, 166, 40, 166, 40, 166, 40, 166, 40, 166, 40
        DC8 166, 40, 166, 40, 166, 40, 166, 40, 166, 40, 166, 40, 166, 40, 166
        DC8 40, 166, 41, 166, 41, 166, 41, 166, 41, 166, 41, 166, 41, 166, 41
        DC8 166, 40, 166, 41, 166, 41, 166, 41, 166, 41, 166, 41, 166, 41, 166
        DC8 41, 166, 41, 166, 40, 158, 41, 158, 41, 166, 9, 158, 41, 158, 41
        DC8 158, 9, 158, 9, 158, 9, 158, 9, 158, 41, 166, 41, 166, 41, 166, 41
        DC8 166, 40, 166, 40, 166, 40, 166, 40, 166, 9, 158, 9, 158, 9, 158, 9
        DC8 158, 9, 158, 9, 158, 9, 158, 9, 158, 9, 158, 9, 158, 9, 150, 9, 158
        DC8 9, 158, 9, 158, 9, 158, 9, 150, 9, 158, 9, 158, 9, 158, 9, 150, 9
        DC8 150, 9, 150, 9, 158, 10, 150, 233, 149, 233, 149, 234, 149, 9, 150
        DC8 9, 150, 9, 158, 9, 158, 9, 158, 9, 158, 41, 158, 9, 158, 9, 158, 9
        DC8 158, 9, 150, 9, 150, 233, 149, 234, 149, 9, 150, 9, 150, 234, 149
        DC8 234, 149, 234, 149, 233, 149, 233, 149, 233, 149, 234, 149, 233
        DC8 149, 233, 149, 234, 141, 234, 141, 234, 141, 234, 141, 234, 141
        DC8 234, 141, 234, 141, 234, 141, 233, 149, 233, 149, 9, 158, 9, 158, 9
        DC8 158, 9, 158, 9, 150, 9, 158, 9, 150, 234, 149, 234, 141, 234, 141
        DC8 234, 141, 234, 141, 234, 141, 234, 141, 234, 141, 234, 141, 234
        DC8 141, 234, 141, 234, 141, 234, 141, 234, 141, 234, 141, 234, 141
        DC8 234, 141, 234, 141, 234, 141, 234, 133, 234, 141, 234, 141, 233
        DC8 149, 233, 149, 234, 149, 9, 150, 233, 149, 233, 149, 233, 149, 234
        DC8 141, 234, 141, 202, 133, 202, 133, 202, 133, 202, 133, 202, 133
        DC8 202, 133, 202, 133, 202, 133, 202, 133, 202, 133, 202, 133, 202
        DC8 133, 202, 133, 202, 133, 202, 133, 202, 133, 202, 133, 202, 125
        DC8 202, 133, 234, 141, 234, 141, 234, 141, 234, 141, 234, 141, 234
        DC8 141, 234, 141, 234, 141, 234, 141, 202, 133, 203, 125, 203, 125
        DC8 202, 125, 202, 125, 203, 125, 203, 125, 202, 125, 202, 125, 202
        DC8 125, 171, 125, 202, 125, 202, 125, 202, 125, 170, 125, 170, 125
        DC8 170, 125, 203, 125, 202, 125, 234, 133, 234, 141, 234, 141, 134
        DC8 198, 134, 198, 134, 198, 102, 198, 134, 198, 134, 198, 134, 198
        DC8 102, 198, 134, 198, 102, 198, 102, 198, 102, 198, 102, 198, 102
        DC8 190, 102, 198, 102, 190, 102, 190, 134, 190, 102, 190, 102, 198
        DC8 102, 190, 102, 190, 102, 190, 102, 190, 135, 198, 102, 190, 102
        DC8 190, 102, 190, 102, 190, 102, 190, 102, 190, 103, 190, 103, 190
        DC8 103, 190, 103, 190, 103, 190, 103, 190, 103, 190, 103, 190, 103
        DC8 190, 103, 190, 103, 190, 103, 190, 103, 190, 103, 190, 103, 190
        DC8 103, 190, 103, 190, 103, 182, 103, 190, 103, 190, 103, 190, 103
        DC8 190, 103, 190, 103, 190, 103, 190, 103, 190, 103, 190, 71, 182, 71
        DC8 182, 103, 190, 103, 182, 71, 182, 103, 182, 103, 182, 71, 182, 71
        DC8 182, 71, 182, 71, 182, 71, 182, 71, 182, 71, 182, 71, 182, 71, 182
        DC8 71, 182, 71, 182, 71, 182, 71, 182, 71, 182, 71, 182, 71, 182, 72
        DC8 182, 72, 182, 72, 182, 71, 174, 71, 174, 72, 174, 72, 182, 72, 182
        DC8 71, 174, 72, 174, 72, 174, 72, 174, 72, 174, 72, 174, 72, 174, 72
        DC8 174, 72, 174, 72, 182, 72, 174, 72, 174, 72, 174, 72, 174, 72, 174
        DC8 72, 182, 72, 182, 72, 174, 71, 174, 72, 174, 71, 174, 72, 174, 72
        DC8 174, 72, 174, 72, 174, 72, 174, 72, 174, 72, 174, 72, 174, 40, 166
        DC8 40, 166, 40, 166, 40, 166, 40, 166, 40, 166, 40, 166, 40, 166, 40
        DC8 166, 40, 166, 40, 166, 40, 166, 40, 166, 41, 166, 40, 166, 40, 166
        DC8 40, 166, 40, 166, 40, 166, 41, 166, 41, 166, 41, 166, 41, 166, 41
        DC8 158, 41, 166, 41, 166, 41, 166, 41, 166, 41, 158, 41, 166, 41, 166
        DC8 41, 166, 41, 166, 41, 166, 41, 158, 41, 158, 41, 166, 41, 158, 9
        DC8 158, 41, 166, 41, 166, 40, 166, 40, 166, 40, 166, 40, 166, 41, 166
        DC8 40, 166, 40, 166, 40, 166, 40, 166, 41, 158, 9, 158, 9, 158, 9, 158
        DC8 9, 158, 9, 158, 9, 158, 10, 158, 9, 158, 9, 158, 9, 158, 9, 150, 9
        DC8 158, 9, 158, 9, 158, 9, 150, 9, 150, 9, 150, 9, 158, 9, 158, 9, 158
        DC8 9, 150, 9, 150, 9, 150, 9, 150, 9, 150, 9, 150, 9, 150, 9, 158, 9
        DC8 158, 41, 166, 41, 158, 9, 158, 41, 158, 9, 158, 9, 158, 9, 158, 233
        DC8 149, 9, 150, 234, 149, 233, 149, 234, 149, 234, 149, 9, 150, 234
        DC8 149, 233, 149, 234, 149, 234, 149, 234, 149, 234, 149, 234, 149
        DC8 234, 149, 233, 149, 234, 149, 234, 141, 233, 149, 234, 149, 234
        DC8 141, 234, 149, 234, 141, 233, 149, 9, 150, 9, 158, 9, 158, 9, 158
        DC8 9, 158, 9, 158, 9, 158, 9, 150, 234, 141, 234, 141, 234, 141, 234
        DC8 141, 234, 141, 234, 141, 234, 141, 234, 141, 234, 141, 234, 141
        DC8 234, 141, 234, 141, 234, 141, 234, 141, 234, 141, 234, 133, 234
        DC8 141, 234, 141, 234, 141, 234, 133, 234, 141, 234, 141, 233, 149
        DC8 233, 149, 9, 150, 233, 149, 9, 150, 233, 149, 234, 149, 234, 149
        DC8 234, 141, 234, 133, 202, 133, 202, 133, 202, 133, 202, 133, 202
        DC8 133, 202, 133, 202, 133, 202, 133, 202, 133, 202, 133, 202, 133
        DC8 202, 133, 202, 133, 202, 133, 202, 133, 202, 133, 202, 133, 202
        DC8 133, 234, 133, 234, 141, 234, 149, 234, 141, 234, 141, 234, 141
        DC8 234, 141, 234, 141, 234, 141, 202, 133, 202, 125, 202, 125, 202
        DC8 125, 203, 125, 203, 125, 202, 125, 202, 125, 202, 125, 202, 125
        DC8 202, 125, 202, 125, 202, 125, 202, 125, 203, 125, 202, 125, 171
        DC8 125, 203, 125, 203, 125, 202, 133, 234, 141, 234, 141, 234, 133
        DC8 234, 141, 134, 198, 134, 198, 102, 198, 102, 198, 102, 198, 102
        DC8 198, 134, 198, 102, 198, 102, 198, 102, 198, 102, 198, 102, 198
        DC8 102, 198, 102, 198, 102, 198, 102, 198, 103, 198, 102, 190, 134
        DC8 198, 102, 190, 134, 198, 102, 190, 102, 190, 102, 190, 102, 190
        DC8 102, 190, 102, 190, 102, 190, 102, 190, 102, 190, 102, 190, 103
        DC8 190, 103, 190, 103, 190, 103, 190, 103, 190, 103, 190, 103, 190
        DC8 103, 190, 103, 190, 103, 190, 103, 190, 103, 190, 103, 190, 103
        DC8 190, 103, 190, 103, 190, 103, 190, 103, 182, 103, 190, 103, 182
        DC8 103, 182, 71, 182, 103, 182, 71, 182, 103, 190, 103, 182, 71, 182
        DC8 103, 182, 103, 190, 103, 182, 71, 182, 103, 182, 103, 182, 103, 182
        DC8 103, 182, 71, 182, 103, 182, 71, 182, 103, 182, 103, 182, 71, 182
        DC8 71, 182, 71, 182, 71, 182, 71, 182, 71, 182, 71, 182, 71, 182, 71
        DC8 182, 71, 182, 71, 182, 71, 182, 71, 182, 71, 182, 71, 182, 71, 182
        DC8 71, 182, 71, 182, 72, 182, 71, 182, 72, 182, 72, 182, 72, 182, 72
        DC8 182, 72, 182, 72, 182, 72, 182, 72, 182, 72, 182, 72, 174, 72, 182
        DC8 71, 174, 72, 174, 72, 174, 72, 174, 40, 174, 72, 174, 72, 174, 40
        DC8 174, 40, 174, 40, 174, 40, 174, 40, 166, 40, 166, 40, 166, 40, 166
        DC8 40, 174, 40, 174, 40, 166, 40, 166, 40, 166, 40, 166, 40, 166, 40
        DC8 166, 40, 166, 41, 166, 40, 166, 40, 166, 40, 166, 40, 166, 40, 166
        DC8 41, 166, 41, 166, 41, 166, 40, 166, 40, 166, 40, 166, 40, 166, 41
        DC8 166, 41, 166, 41, 166, 41, 166, 41, 166, 9, 158, 41, 158, 41, 166
        DC8 41, 166, 41, 166, 41, 158, 41, 158, 41, 158, 9, 158, 41, 166, 40
        DC8 166, 41, 166, 40, 166, 40, 166, 40, 166, 40, 166, 40, 166, 40, 166
        DC8 40, 166, 40, 166, 41, 166, 9, 158, 9, 158, 9, 158, 41, 158, 9, 158
        DC8 9, 158, 9, 158, 9, 158, 9, 158, 9, 150, 9, 158, 9, 158, 9, 150, 9
        DC8 158, 9, 158, 9, 150, 9, 158, 9, 158, 9, 150, 9, 158, 9, 150, 9, 150
        DC8 9, 150, 8, 150, 9, 158, 9, 158, 9, 150, 9, 150, 9, 158, 9, 158, 41
        DC8 158, 9, 158, 9, 158, 41, 158, 9, 158, 9, 158, 9, 158, 9, 150, 9
        DC8 150, 233, 149, 234, 149, 234, 149, 233, 149, 233, 149, 9, 150, 233
        DC8 149, 9, 150, 234, 149, 234, 149, 233, 149, 234, 149, 234, 149, 234
        DC8 149, 234, 149, 234, 141, 234, 141, 234, 149, 234, 149, 234, 149
        DC8 234, 141, 234, 149, 233, 149, 9, 150, 9, 158, 9, 158, 9, 150, 9
        DC8 150, 9, 158, 9, 158, 9, 150, 233, 149, 234, 141, 234, 141, 234, 141
        DC8 234, 141, 234, 141, 234, 141, 234, 141, 234, 141, 234, 141, 234
        DC8 141, 234, 141, 234, 141, 234, 141, 234, 141, 234, 141, 234, 141
        DC8 234, 141, 234, 141, 234, 133, 234, 141, 234, 141, 234, 141, 233
        DC8 149, 9, 150, 233, 149, 9, 150, 233, 149, 233, 149, 233, 149, 234
        DC8 141, 234, 141, 202, 133, 202, 133, 202, 133, 202, 133, 202, 133
        DC8 202, 133, 202, 133, 202, 133, 202, 133, 202, 133, 202, 133, 202
        DC8 133, 202, 133, 202, 133, 202, 133, 202, 133, 202, 133, 202, 133
        DC8 202, 133, 233, 141, 234, 141, 234, 141, 234, 141, 234, 141, 234
        DC8 141, 234, 141, 233, 141, 234, 141, 202, 133, 202, 125, 202, 125
        DC8 202, 125, 202, 125, 202, 125, 202, 125, 202, 125, 203, 125, 202
        DC8 125, 202, 125, 202, 125, 202, 125, 202, 125, 202, 125, 202, 125
        DC8 202, 125, 171, 125, 202, 133, 202, 133, 234, 141, 234, 141, 234
        DC8 141, 234, 133, 234, 141, 134, 198, 102, 198, 102, 190, 102, 198
        DC8 102, 198, 102, 198, 102, 198, 102, 198, 102, 198, 102, 198, 102
        DC8 198, 102, 198, 102, 198, 102, 198, 102, 198, 102, 198, 102, 198
        DC8 102, 190, 102, 198, 102, 190, 102, 190, 102, 190, 102, 190, 102
        DC8 190, 102, 190, 103, 198, 102, 190, 102, 190, 102, 190, 102, 190
        DC8 102, 190, 103, 190, 103, 190, 103, 190, 103, 190, 103, 190, 103
        DC8 190, 103, 190, 103, 190, 103, 190, 103, 190, 103, 190, 103, 190
        DC8 103, 190, 103, 190, 103, 190, 103, 182, 71, 182, 103, 190, 103, 190
        DC8 103, 190, 103, 182, 71, 182, 71, 182, 103, 182, 71, 182, 71, 182
        DC8 71, 182, 103, 182, 71, 182, 103, 182, 103, 182, 103, 182, 103, 182
        DC8 71, 182, 71, 182, 103, 182, 103, 182, 71, 182, 103, 182, 71, 182
        DC8 71, 182, 71, 182, 71, 182, 71, 182, 71, 182, 71, 182, 71, 182, 71
        DC8 182, 71, 182, 71, 182, 71, 182, 71, 182, 71, 182, 71, 182, 72, 182
        DC8 72, 182, 71, 182, 71, 182, 71, 182, 71, 182, 71, 182, 71, 182, 72
        DC8 182, 72, 174, 72, 174, 72, 174, 72, 174, 72, 174, 72, 174, 72, 174
        DC8 72, 174, 72, 174, 72, 174, 40, 174, 40, 174, 40, 174, 72, 174, 40
        DC8 166, 40, 174, 40, 166, 40, 166, 40, 166, 40, 166, 40, 166, 40, 166
        DC8 40, 166, 40, 166, 40, 174, 40, 166, 40, 166, 40, 166, 40, 166, 40
        DC8 166, 40, 166, 41, 166, 40, 166, 40, 166, 40, 166, 40, 166, 40, 166
        DC8 41, 166, 40, 166, 40, 166, 40, 166, 40, 166, 41, 166, 41, 166, 41
        DC8 166, 41, 166, 41, 166, 41, 166, 41, 166, 41, 166, 41, 166, 41, 166
        DC8 41, 158, 9, 158, 41, 158, 41, 166, 41, 166, 41, 166, 40, 166, 40
        DC8 166, 40, 166, 40, 166, 40, 166, 40, 166, 40, 166, 40, 166, 41, 166
        DC8 41, 166, 9, 158, 9, 158, 9, 158, 9, 158, 9, 158, 41, 158, 9, 158, 9
        DC8 158, 9, 158, 9, 158, 9, 158, 9, 158, 9, 158, 9, 158, 9, 158, 9, 158
        DC8 9, 158, 9, 158, 9, 158, 9, 158, 9, 150, 9, 158, 9, 158, 9, 150, 9
        DC8 158, 9, 158, 9, 158, 9, 150, 9, 158, 9, 158, 9, 158, 41, 158, 9
        DC8 158, 9, 158, 9, 158, 40, 166, 41, 158, 9, 158, 9, 150, 233, 149, 9
        DC8 150, 234, 149, 9, 150, 9, 150, 233, 149, 9, 150, 9, 150, 233, 149
        DC8 234, 149, 9, 150, 233, 149, 234, 149, 234, 149, 234, 149, 234, 149
        DC8 234, 141, 234, 149, 234, 149, 234, 141, 234, 149, 234, 141, 234
        DC8 149, 9, 150, 9, 150, 9, 158, 9, 158, 9, 158, 9, 158, 9, 158, 9, 158
        DC8 9, 150, 233, 149, 234, 141, 234, 141, 234, 141, 234, 141, 234, 141
        DC8 234, 141, 234, 141, 234, 141, 234, 141, 234, 141, 234, 141, 234
        DC8 141, 234, 141, 234, 141, 234, 141, 234, 141, 234, 141, 234, 141
        DC8 234, 141, 234, 133, 234, 141, 234, 149, 233, 149, 233, 149, 9, 150
        DC8 9, 150, 9, 150, 233, 149, 233, 149, 234, 141, 234, 141, 202, 133
        DC8 234, 133, 202, 133, 202, 133, 202, 133, 202, 133, 202, 133, 202
        DC8 133, 202, 133, 202, 133, 202, 133, 202, 133, 202, 133, 202, 133
        DC8 202, 133, 202, 133, 202, 133, 202, 133, 202, 133, 234, 141, 234
        DC8 149, 233, 141, 234, 141, 234, 141, 234, 141, 234, 141, 234, 141
        DC8 234, 141, 202, 133, 202, 133, 202, 125, 202, 133, 202, 125, 170
        DC8 125, 202, 125, 203, 125, 202, 125, 202, 125, 203, 125, 202, 125
        DC8 202, 125, 203, 125, 203, 125, 202, 125, 203, 125, 171, 125, 203
        DC8 125, 202, 133, 234, 141, 234, 141, 234, 141, 234, 141, 234, 141
        DC8 234, 133, 234, 141, 134, 198, 134, 198, 102, 198, 102, 198, 102
        DC8 198, 102, 198, 134, 198, 102, 198, 102, 190, 134, 198, 102, 198
        DC8 102, 198, 102, 198, 102, 190, 102, 198, 102, 198, 102, 198, 102
        DC8 190, 102, 198, 102, 190, 102, 190, 102, 190, 102, 190, 102, 190
        DC8 102, 198, 103, 190, 102, 190, 102, 190, 102, 190, 102, 190, 102
        DC8 190, 102, 190, 103, 190, 103, 190, 103, 190, 103, 190, 103, 190
        DC8 103, 190, 103, 190, 103, 190, 103, 190, 103, 190, 103, 190, 103
        DC8 190, 103, 190, 103, 190, 103, 190, 103, 190, 103, 182, 103, 190
        DC8 103, 182, 103, 182, 103, 182, 103, 182, 103, 182, 71, 182, 71, 182
        DC8 71, 182, 103, 182, 71, 182, 71, 182, 71, 182, 71, 182, 103, 182, 71
        DC8 182, 71, 182, 71, 182, 71, 182, 71, 182, 71, 182, 71, 182, 71, 182
        DC8 71, 182, 71, 182, 71, 182, 71, 182, 71, 174, 72, 182, 71, 182, 72
        DC8 182, 72, 182, 72, 182, 72, 182, 71, 182, 72, 182, 72, 182, 72, 182
        DC8 71, 182, 71, 174, 72, 174, 72, 174, 72, 174, 72, 174, 72, 174, 40
        DC8 174, 72, 174, 72, 174, 40, 174, 72, 174, 40, 174, 72, 174, 72, 174
        DC8 40, 174, 40, 174, 40, 174, 40, 174, 40, 174, 72, 174, 40, 166, 40
        DC8 174, 40, 166, 40, 166, 40, 166, 40, 166, 40, 166, 40, 166, 40, 166
        DC8 40, 166, 40, 166, 40, 166, 40, 166, 40, 166, 40, 166, 40, 166, 40
        DC8 166, 41, 166, 41, 166, 40, 166, 40, 166, 40, 166, 40, 166, 40, 166
        DC8 41, 166, 40, 166, 40, 166, 41, 166, 41, 166, 41, 166, 41, 166, 41
        DC8 166, 41, 166, 41, 166, 41, 166, 41, 166, 41, 166, 41, 166, 40, 166
        DC8 40, 166, 40, 166, 41, 166, 40, 166, 40, 166, 40, 166, 40, 166, 40
        DC8 166, 40, 166, 40, 166, 40, 166, 40, 166, 41, 158, 9, 158, 9, 158, 9
        DC8 158, 9, 158, 41, 158, 9, 158, 41, 158, 9, 158, 9, 158, 9, 158, 9
        DC8 158, 9, 158, 9, 158, 9, 158, 9, 158, 9, 158, 9, 158, 9, 158, 9, 158
        DC8 9, 158, 9, 150, 9, 158, 9, 158, 9, 150, 9, 150, 9, 158, 9, 158, 9
        DC8 158, 9, 158, 9, 158, 9, 158, 41, 166, 9, 158, 9, 158, 41, 166, 41
        DC8 158, 41, 158, 9, 150, 9, 150, 233, 149, 9, 150, 9, 150, 9, 150, 10
        DC8 150, 9, 150, 233, 149, 233, 149, 234, 149, 9, 150, 233, 149, 9, 150
        DC8 9, 150, 233, 149, 234, 149, 234, 149, 234, 149, 234, 149, 234, 141
        DC8 234, 149, 234, 141, 234, 141, 233, 149, 233, 149, 9, 158, 9, 158, 9
        DC8 158, 9, 158, 9, 158, 9, 158, 9, 158, 233, 149, 234, 141, 234, 141
        DC8 234, 141, 234, 141, 234, 141, 234, 141, 234, 141, 234, 141, 234
        DC8 141, 234, 141, 234, 141, 234, 141, 234, 141, 234, 141, 234, 141
        DC8 234, 141, 234, 141, 234, 141, 234, 141, 234, 141, 202, 133, 234
        DC8 141, 233, 149, 9, 150, 233, 149, 9, 150, 233, 149, 233, 149, 9, 150
        DC8 233, 149, 234, 141, 234, 141, 202, 133, 202, 133, 234, 133, 202
        DC8 133, 202, 133, 202, 133, 202, 133, 202, 133, 202, 133, 202, 133
        DC8 202, 133, 202, 133, 202, 133, 202, 133, 202, 133, 202, 133, 202
        DC8 125, 202, 133, 202, 133, 234, 141, 234, 141, 10, 150, 234, 141, 234
        DC8 141, 234, 141, 234, 141, 233, 141, 233, 141, 202, 133, 202, 133
        DC8 202, 125, 202, 133, 202, 125, 202, 125, 202, 125, 203, 125, 202
        DC8 125, 203, 125, 202, 125, 203, 125, 202, 125, 202, 125, 202, 125
        DC8 202, 125, 202, 125, 202, 125, 203, 125, 203, 133, 234, 141, 234
        DC8 141, 234, 141, 234, 141, 234, 141, 234, 141, 234, 133, 234, 141
        DC8 234, 133, 134, 198, 134, 198, 134, 198, 134, 198, 102, 198, 102
        DC8 198, 102, 198, 102, 190, 134, 198, 102, 190, 102, 198, 102, 190
        DC8 102, 190, 102, 190, 134, 198, 134, 198, 134, 198, 102, 190, 102
        DC8 190, 102, 198, 102, 190, 102, 190, 102, 190, 103, 190, 102, 190
        DC8 102, 190, 103, 190, 102, 190, 102, 190, 102, 190, 102, 190, 102
        DC8 190, 103, 190, 103, 190, 103, 190, 103, 190, 103, 190, 103, 190
        DC8 103, 190, 103, 190, 103, 190, 103, 190, 103, 190, 103, 190, 103
        DC8 182, 103, 190, 103, 190, 71, 182, 103, 190, 103, 182, 103, 190, 103
        DC8 182, 71, 182, 103, 190, 71, 182, 71, 182, 103, 182, 71, 182, 103
        DC8 182, 71, 182, 71, 182, 71, 182, 71, 182, 71, 182, 71, 182, 71, 182
        DC8 71, 182, 71, 182, 71, 182, 71, 182, 72, 182, 71, 182, 71, 182, 72
        DC8 182, 71, 182, 71, 182, 71, 182, 72, 182, 72, 182, 72, 174, 72, 174
        DC8 72, 182, 72, 182, 71, 174, 72, 174, 72, 174, 72, 174, 72, 182, 72
        DC8 174, 40, 174, 72, 174, 72, 174, 72, 174, 72, 174, 72, 174, 72, 174
        DC8 72, 174, 72, 174, 72, 174, 72, 174, 72, 174, 72, 174, 40, 174, 72
        DC8 174, 40, 174, 40, 174, 72, 174, 40, 174, 40, 166, 40, 166, 40, 174
        DC8 40, 174, 40, 166, 40, 166, 40, 174, 40, 166, 40, 166, 40, 166, 40
        DC8 166, 40, 166, 40, 166, 40, 166, 40, 166, 40, 166, 40, 166, 40, 166
        DC8 40, 166, 40, 166, 40, 166, 40, 166, 40, 166, 41, 166, 40, 166, 41
        DC8 166, 41, 166, 40, 166, 41, 166, 40, 166, 40, 166, 41, 166, 40, 166
        DC8 41, 166, 41, 166, 40, 166, 40, 166, 40, 166, 40, 166, 40, 166, 40
        DC8 166, 40, 166, 40, 166, 40, 166, 40, 166, 40, 166, 41, 166, 41, 166
        DC8 41, 158, 41, 158, 41, 158, 41, 158, 41, 158, 9, 158, 9, 158, 9, 158
        DC8 9, 158, 41, 158, 41, 158, 9, 158, 41, 158, 9, 158, 9, 158, 9, 158
        DC8 9, 158, 9, 158, 9, 158, 9, 158, 9, 158, 9, 158, 9, 158, 9, 158, 9
        DC8 158, 9, 158, 9, 150, 9, 150, 9, 150, 9, 158, 9, 158, 9, 158, 9, 158
        DC8 9, 158, 41, 166, 41, 158, 41, 158, 9, 158, 9, 158, 9, 158, 9, 150
        DC8 9, 150, 233, 149, 9, 150, 9, 150, 9, 150, 9, 150, 9, 150, 9, 150, 9
        DC8 150, 233, 149, 9, 150, 233, 149, 9, 150, 233, 149, 234, 149, 9, 150
        DC8 234, 149, 234, 149, 234, 149, 234, 149, 234, 141, 234, 149, 234
        DC8 149, 9, 150, 9, 158, 9, 158, 9, 158, 9, 150, 9, 158, 9, 158, 9, 158
        DC8 233, 149, 233, 149, 234, 149, 234, 141, 234, 141, 234, 141, 234
        DC8 141, 234, 141, 234, 141, 234, 141, 234, 141, 234, 141, 234, 141
        DC8 234, 141, 234, 141, 234, 141, 234, 141, 234, 141, 234, 141, 234
        DC8 141, 234, 141, 234, 141, 234, 141, 233, 141, 233, 149, 9, 150, 233
        DC8 149, 9, 150, 9, 150, 9, 150, 233, 149, 233, 149, 234, 141, 234, 141
        DC8 234, 141, 234, 141, 202, 133, 234, 141, 234, 133, 202, 133, 202
        DC8 133, 202, 133, 202, 133, 202, 133, 234, 133, 202, 133, 202, 133
        DC8 202, 133, 202, 133, 202, 133, 202, 133, 202, 133, 234, 141, 234
        DC8 141, 10, 150, 234, 141, 234, 141, 234, 141, 234, 141, 234, 141, 234
        DC8 141, 234, 141, 202, 133, 202, 125, 202, 125, 202, 125, 202, 133
        DC8 202, 125, 202, 125, 202, 125, 202, 125, 202, 125, 202, 125, 202
        DC8 125, 202, 125, 202, 125, 202, 125, 202, 125, 202, 125, 202, 125
        DC8 202, 125, 234, 133, 234, 141, 234, 141, 234, 141, 234, 133, 234
        DC8 141, 234, 141, 234, 133, 234, 133, 202, 133, 202, 125, 134, 198
        DC8 134, 198, 134, 198, 134, 198, 134, 198, 134, 198, 134, 198, 102
        DC8 198, 102, 190, 102, 190, 102, 198, 102, 198, 102, 190, 102, 190
        DC8 134, 190, 102, 190, 102, 190, 102, 190, 102, 198, 102, 190, 102
        DC8 190, 103, 198, 102, 190, 102, 190, 103, 190, 102, 198, 102, 190
        DC8 102, 190, 102, 190, 102, 190, 102, 190, 103, 190, 103, 190, 103
        DC8 190, 103, 190, 103, 190, 103, 190, 103, 190, 103, 190, 103, 190
        DC8 103, 190, 103, 190, 103, 190, 103, 190, 103, 190, 103, 190, 103
        DC8 190, 103, 190, 103, 182, 103, 190, 71, 182, 103, 182, 103, 190, 71
        DC8 182, 71, 182, 71, 182, 103, 182, 103, 182, 71, 182, 103, 182, 71
        DC8 182, 71, 182, 71, 182, 71, 182, 71, 182, 71, 182, 71, 182, 71, 182
        DC8 71, 182, 71, 182, 71, 182, 71, 182, 71, 182, 71, 182, 71, 182, 71
        DC8 182, 72, 182, 72, 182, 72, 182, 72, 182, 72, 182, 72, 174, 72, 182
        DC8 72, 182, 72, 174, 72, 174, 72, 174, 72, 174, 72, 182, 71, 182, 72
        DC8 182, 40, 174, 40, 174, 72, 174, 72, 174, 72, 174, 72, 174, 40, 174
        DC8 72, 174, 40, 174, 72, 174, 72, 174, 40, 174, 72, 174, 72, 174, 40
        DC8 174, 40, 174, 40, 174, 40, 174, 40, 174, 40, 166, 40, 174, 40, 166
        DC8 40, 166, 40, 166, 40, 166, 40, 166, 40, 166, 40, 166, 40, 166, 40
        DC8 166, 40, 166, 40, 166, 40, 166, 40, 166, 40, 166, 40, 166, 40, 166
        DC8 40, 166, 40, 166, 40, 166, 40, 166, 40, 166, 41, 166, 40, 166, 40
        DC8 166, 40, 166, 41, 166, 40, 166, 40, 166, 40, 166, 40, 166, 40, 166
        DC8 40, 166, 40, 166, 40, 166, 40, 166, 40, 166, 40, 166, 40, 166, 41
        DC8 158, 40, 166, 40, 166, 9, 158, 41, 158, 41, 158, 9, 158, 9, 158, 9
        DC8 158, 9, 158, 41, 166, 41, 158, 9, 158, 41, 158, 9, 158, 9, 158, 9
        DC8 158, 9, 158, 41, 158, 9, 158, 9, 158, 9, 158, 9, 158, 9, 158, 9
        DC8 158, 9, 158, 9, 158, 9, 158, 9, 158, 9, 150, 9, 150, 9, 158, 9, 158
        DC8 9, 158, 41, 166, 9, 158, 41, 166, 9, 158, 41, 166, 9, 166, 41, 166
        DC8 9, 158, 9, 158, 9, 158, 233, 149, 9, 150, 9, 158, 9, 158, 9, 150
        DC8 233, 149, 9, 150, 233, 149, 10, 150, 233, 149, 233, 149, 9, 150, 9
        DC8 150, 9, 150, 9, 150, 233, 149, 9, 150, 9, 150, 9, 150, 234, 149
        DC8 234, 149, 234, 149, 233, 149, 233, 149, 9, 150, 9, 158, 9, 158, 9
        DC8 158, 9, 158, 9, 150, 9, 158, 9, 150, 233, 149, 234, 141, 234, 149
        DC8 234, 149, 234, 141, 234, 141, 234, 141, 234, 141, 234, 141, 234
        DC8 141, 234, 141, 234, 141, 234, 141, 234, 141, 234, 141, 234, 141
        DC8 234, 141, 234, 141, 234, 141, 234, 141, 234, 141, 234, 141, 234
        DC8 141, 234, 141, 233, 149, 233, 149, 9, 150, 9, 150, 233, 149, 9, 150
        DC8 9, 150, 234, 149, 234, 141, 234, 141, 234, 141, 202, 133, 234, 133
        DC8 234, 133, 234, 133, 202, 133, 202, 133, 234, 141, 202, 133, 202
        DC8 133, 202, 133, 202, 133, 202, 133, 203, 133, 202, 133, 202, 133
        DC8 202, 133, 202, 133, 234, 133, 234, 141, 234, 149, 234, 149, 234
        DC8 141, 234, 149, 234, 141, 234, 141, 234, 141, 234, 141, 202, 133
        DC8 202, 125, 202, 125, 202, 133, 202, 125, 202, 125, 202, 133, 202
        DC8 125, 202, 125, 202, 125, 202, 125, 202, 133, 202, 125, 202, 125
        DC8 202, 125, 203, 125, 202, 125, 170, 125, 202, 125, 202, 133, 234
        DC8 141, 234, 141, 234, 141, 234, 141, 234, 141, 234, 133, 234, 141
        DC8 234, 141, 202, 133, 202, 125, 203, 125, 203, 125, 102, 198, 134
        DC8 198, 134, 198, 102, 198, 134, 198, 134, 198, 134, 198, 102, 190
        DC8 102, 198, 102, 190, 102, 198, 102, 190, 102, 190, 102, 190, 102
        DC8 198, 102, 190, 102, 190, 102, 190, 102, 198, 102, 190, 102, 190
        DC8 102, 190, 102, 190, 102, 190, 103, 198, 102, 190, 102, 190, 103
        DC8 190, 102, 190, 102, 190, 102, 190, 103, 190, 103, 190, 103, 190
        DC8 103, 190, 103, 190, 103, 190, 103, 190, 103, 190, 103, 190, 103
        DC8 190, 103, 190, 103, 190, 71, 182, 103, 190, 103, 190, 71, 182, 103
        DC8 190, 103, 190, 103, 190, 103, 182, 71, 182, 71, 182, 103, 190, 71
        DC8 182, 71, 182, 71, 182, 71, 182, 71, 182, 103, 182, 71, 182, 71, 182
        DC8 71, 182, 71, 182, 71, 182, 71, 182, 71, 182, 71, 182, 71, 182, 71
        DC8 182, 71, 182, 71, 182, 72, 182, 71, 182, 71, 182, 71, 182, 71, 182
        DC8 72, 182, 71, 182, 72, 182, 71, 182, 72, 182, 72, 182, 72, 182, 72
        DC8 174, 72, 174, 72, 174, 72, 174, 72, 174, 72, 174, 72, 182, 72, 174
        DC8 72, 174, 72, 174, 72, 174, 72, 174, 72, 174, 72, 174, 40, 174, 72
        DC8 174, 72, 174, 72, 174, 72, 174, 72, 174, 40, 174, 72, 174, 40, 174
        DC8 40, 174, 40, 174, 40, 174, 40, 174, 40, 166, 40, 166, 40, 166, 40
        DC8 166, 41, 166, 40, 166, 40, 166, 40, 166, 40, 166, 40, 166, 40, 166
        DC8 40, 166, 40, 166, 40, 166, 40, 166, 40, 166, 40, 166, 40, 166, 40
        DC8 166, 40, 166, 40, 166, 40, 166, 40, 166, 40, 166, 40, 166, 40, 166
        DC8 40, 166, 40, 174, 40, 166, 40, 166, 40, 166, 40, 166, 40, 166, 40
        DC8 166, 40, 166, 40, 166, 40, 166, 41, 166, 9, 158, 40, 158, 9, 158
        DC8 41, 166, 41, 158, 41, 166, 9, 158, 9, 158, 9, 158, 9, 158, 9, 158
        DC8 9, 158, 9, 158, 9, 158, 41, 158, 9, 158, 9, 158, 9, 158, 9, 158, 9
        DC8 158, 9, 158, 9, 158, 9, 158, 9, 158, 9, 158, 9, 158, 9, 158, 9, 158
        DC8 9, 158, 9, 158, 9, 158, 9, 158, 41, 166, 41, 166, 9, 166, 9, 158, 8
        DC8 158, 41, 166, 41, 166, 9, 158, 9, 158, 9, 150, 9, 150, 9, 150, 9
        DC8 150, 9, 150, 9, 150, 9, 150, 233, 149, 9, 150, 233, 149, 9, 158, 9
        DC8 150, 9, 150, 9, 150, 9, 150, 9, 150, 233, 149, 233, 149, 233, 149
        DC8 9, 150, 234, 149, 9, 150, 233, 149, 234, 149, 233, 149, 9, 150, 9
        DC8 150, 9, 158, 9, 158, 9, 158, 9, 158, 9, 158, 9, 158, 9, 150, 9, 150
        DC8 234, 141, 234, 141, 234, 141, 234, 141, 234, 141, 234, 141, 234
        DC8 141, 234, 141, 234, 141, 234, 141, 234, 141, 234, 141, 234, 141
        DC8 234, 141, 234, 141, 234, 141, 234, 141, 234, 141, 234, 141, 234
        DC8 141, 234, 141, 234, 141, 234, 141, 9, 150, 9, 150, 233, 149, 233
        DC8 149, 9, 150, 233, 149, 9, 150, 233, 141, 234, 141, 234, 133, 234
        DC8 133, 234, 133, 234, 133, 202, 133, 234, 141, 202, 133, 202, 133
        DC8 202, 133, 234, 141, 234, 133, 202, 133, 202, 133, 202, 133, 202
        DC8 133, 202, 133, 202, 133, 202, 133, 202, 133, 234, 133, 234, 141, 10
        DC8 150, 234, 141, 234, 141, 234, 141, 234, 141, 234, 141, 234, 149
        DC8 234, 141, 202, 133, 202, 133, 202, 125, 202, 125, 202, 133, 202
        DC8 133, 202, 125, 202, 125, 202, 125, 202, 125, 202, 125, 202, 125
        DC8 202, 125, 202, 125, 202, 125, 202, 125, 202, 125, 202, 125, 202
        DC8 125, 202, 133, 234, 141, 233, 141, 234, 141, 234, 141, 234, 141
        DC8 234, 141, 234, 141, 234, 141, 234, 141, 202, 133, 203, 125, 203
        DC8 125, 203, 125, 203, 125, 102, 198, 102, 198, 102, 198, 134, 198
        DC8 134, 198, 102, 198, 134, 198, 102, 198, 102, 198, 102, 198, 102
        DC8 198, 134, 198, 134, 190, 102, 190, 102, 190, 102, 198, 102, 190
        DC8 102, 190, 102, 190, 102, 190, 102, 190, 102, 198, 102, 190, 103
        DC8 190, 102, 190, 103, 190, 102, 190, 103, 190, 102, 190, 102, 190
        DC8 102, 190, 103, 190, 103, 190, 103, 190, 103, 190, 103, 190, 103
        DC8 190, 103, 190, 103, 190, 103, 190, 103, 190, 103, 190, 103, 190
        DC8 103, 190, 103, 190, 103, 190, 103, 190, 103, 190, 103, 190, 103
        DC8 190, 103, 190, 71, 182, 103, 190, 103, 190, 71, 182, 71, 182, 71
        DC8 182, 71, 182, 71, 182, 71, 182, 71, 182, 71, 182, 71, 182, 71, 182
        DC8 71, 182, 71, 182, 71, 182, 71, 182, 71, 182, 71, 182, 72, 182, 71
        DC8 182, 71, 182, 72, 182, 71, 182, 72, 182, 72, 182, 72, 182, 72, 182
        DC8 72, 182, 72, 182, 72, 174, 72, 182, 72, 174, 72, 174, 72, 174, 72
        DC8 174, 72, 174, 72, 174, 72, 174, 72, 174, 72, 174, 72, 174, 72, 174
        DC8 72, 174, 72, 174, 72, 174, 72, 174, 72, 174, 72, 174, 72, 174, 72
        DC8 174, 72, 174, 40, 174, 40, 174, 40, 174, 40, 174, 40, 174, 40, 174
        DC8 40, 174, 40, 174, 40, 166, 40, 166, 40, 166, 40, 166, 40, 166, 40
        DC8 166, 40, 166, 40, 166, 40, 166, 40, 166, 40, 166, 40, 166, 40, 166
        DC8 40, 166, 40, 166, 40, 166, 40, 166, 40, 166, 40, 174, 40, 166, 40
        DC8 174, 40, 174, 40, 174, 40, 174, 40, 166, 40, 166, 40, 174, 40, 166
        DC8 40, 166, 40, 166, 40, 166, 41, 166, 40, 166, 9, 158, 9, 158, 41
        DC8 166, 41, 158, 41, 166, 9, 158, 41, 166, 41, 158, 41, 158, 40, 166
        DC8 9, 158, 41, 158, 9, 158, 41, 158, 9, 158, 9, 158, 9, 158, 9, 158, 9
        DC8 158, 9, 158, 9, 158, 41, 158, 41, 158, 9, 158, 9, 158, 9, 158, 9
        DC8 158, 9, 158, 9, 158, 9, 158, 9, 158, 9, 158, 9, 158, 9, 158, 41
        DC8 166, 41, 166, 41, 166, 41, 166, 9, 158, 41, 166, 9, 158, 9, 158, 9
        DC8 158, 9, 158, 9, 150, 9, 150, 9, 158, 9, 150, 9, 150, 9, 150, 9, 150
        DC8 9, 150, 233, 149, 9, 150, 9, 150, 9, 150, 9, 150, 9, 150, 9, 150, 9
        DC8 150, 9, 150, 233, 149, 9, 150, 234, 149, 234, 149, 9, 150, 233, 149
        DC8 234, 149, 9, 150, 9, 150, 9, 158, 9, 158, 9, 158, 9, 158, 9, 158, 9
        DC8 158, 9, 158, 9, 150, 233, 149, 234, 149, 234, 141, 234, 141, 234
        DC8 141, 234, 141, 234, 141, 234, 141, 234, 141, 234, 141, 234, 141
        DC8 234, 141, 234, 141, 234, 141, 234, 141, 234, 141, 234, 141, 234
        DC8 141, 234, 141, 234, 141, 234, 141, 234, 141, 233, 141, 234, 149, 9
        DC8 150, 9, 150, 9, 150, 9, 150, 9, 150, 9, 150, 233, 149, 234, 149
        DC8 234, 141, 234, 141, 234, 133, 234, 133, 234, 141, 234, 141, 202
        DC8 133, 202, 133, 234, 133, 234, 141, 202, 133, 234, 141, 234, 133
        DC8 234, 133, 234, 133, 203, 133, 234, 133, 202, 133, 202, 133, 202
        DC8 133, 234, 133, 234, 141, 9, 142, 234, 149, 234, 141, 234, 141, 10
        DC8 150, 234, 149, 234, 141, 234, 141, 234, 141, 202, 133, 202, 133
        DC8 202, 133, 202, 125, 202, 133, 202, 125, 202, 125, 202, 125, 202
        DC8 125, 202, 125, 202, 125, 202, 125, 202, 125, 202, 125, 202, 125
        DC8 202, 133, 202, 125, 203, 125, 202, 125, 202, 133, 234, 141, 234
        DC8 141, 234, 141, 234, 141, 234, 141, 234, 141, 234, 141, 234, 141
        DC8 202, 133, 202, 125, 203, 125, 202, 125, 203, 125, 203, 125, 203
        DC8 125, 102, 198, 102, 198, 102, 198, 102, 198, 102, 198, 102, 198
        DC8 134, 198, 102, 198, 134, 198, 102, 198, 102, 198, 102, 198, 102
        DC8 198, 102, 190, 102, 190, 102, 190, 102, 190, 102, 198, 102, 190
        DC8 102, 190, 103, 190, 102, 190, 102, 190, 102, 190, 102, 190, 102
        DC8 190, 102, 190, 102, 190, 102, 190, 103, 190, 102, 190, 103, 190
        DC8 103, 190, 103, 190, 103, 190, 103, 190, 103, 190, 103, 190, 103
        DC8 190, 103, 190, 103, 190, 103, 190, 103, 190, 103, 190, 103, 190
        DC8 103, 190, 103, 190, 103, 190, 103, 190, 103, 190, 103, 190, 103
        DC8 190, 103, 182, 103, 190, 103, 182, 71, 182, 71, 182, 103, 190, 71
        DC8 182, 103, 182, 71, 182, 71, 182, 71, 182, 71, 182, 71, 182, 71, 182
        DC8 71, 182, 71, 182, 71, 182, 71, 182, 71, 182, 71, 182, 71, 182, 71
        DC8 182, 72, 182, 71, 182, 72, 182, 72, 182, 72, 174, 72, 182, 72, 182
        DC8 72, 182, 72, 182, 72, 182, 72, 174, 72, 174, 72, 174, 72, 174, 71
        DC8 174, 72, 174, 40, 174, 72, 174, 72, 174, 72, 174, 72, 174, 72, 174
        DC8 40, 174, 72, 174, 72, 174, 72, 174, 72, 174, 72, 174, 40, 174, 40
        DC8 174, 40, 174, 40, 174, 40, 174, 72, 174, 40, 166, 40, 166, 40, 166
        DC8 40, 174, 40, 166, 40, 166, 40, 166, 40, 166, 40, 166, 40, 166, 40
        DC8 166, 40, 166, 40, 166, 40, 166, 40, 174, 40, 174, 40, 174, 40, 174
        DC8 40, 174, 72, 174, 72, 174, 40, 166, 40, 166, 40, 174, 40, 166, 40
        DC8 166, 40, 166, 40, 166, 40, 166, 40, 166, 41, 166, 41, 166, 40, 166
        DC8 41, 166, 41, 158, 41, 166, 41, 166, 41, 166, 41, 158, 41, 166, 41
        DC8 166, 41, 166, 41, 158, 9, 158, 41, 158, 41, 158, 9, 158, 41, 166, 9
        DC8 158, 9, 158, 9, 158, 9, 158, 9, 158, 41, 158, 9, 158, 9, 158, 9
        DC8 158, 9, 158, 9, 158, 41, 158, 9, 158, 9, 158, 9, 158, 9, 158, 9
        DC8 158, 9, 158, 9, 158, 41, 166, 40, 166, 41, 166, 41, 166, 41, 166
        DC8 41, 166, 41, 166, 9, 158, 9, 158, 9, 158, 9, 158, 9, 150, 10, 158
        DC8 9, 158, 9, 150, 9, 150, 10, 150, 9, 158, 9, 150, 9, 150, 9, 150, 9
        DC8 150, 9, 150, 9, 150, 9, 150, 9, 150, 9, 150, 9, 150, 9, 150, 233
        DC8 149, 233, 149, 9, 150, 9, 150, 233, 149, 233, 149, 9, 150, 9, 158
        DC8 9, 158, 9, 158, 9, 158, 9, 158, 9, 158, 9, 158, 9, 158, 9, 150, 233
        DC8 149, 234, 141, 234, 141, 10, 150, 234, 149, 234, 141, 234, 141, 234
        DC8 141, 234, 141, 234, 141, 234, 141, 234, 141, 234, 141, 234, 141
        DC8 234, 141, 234, 141, 234, 141, 234, 141, 234, 141, 234, 141, 234
        DC8 141, 234, 141, 234, 141, 233, 149, 9, 150, 9, 150, 9, 150, 233, 149
        DC8 9, 150, 9, 150, 233, 149, 234, 149, 233, 141, 234, 141, 234, 133
        DC8 234, 141, 234, 133, 234, 141, 234, 133, 234, 133, 202, 133, 202
        DC8 133, 234, 133, 202, 133, 202, 133, 202, 133, 234, 133, 234, 141
        DC8 202, 133, 202, 133, 202, 133, 202, 133, 202, 133, 234, 141, 233
        DC8 141, 234, 149, 234, 141, 234, 141, 234, 141, 234, 141, 234, 141
        DC8 234, 141, 234, 141, 202, 133, 202, 125, 202, 133, 202, 133, 202
        DC8 133, 202, 133, 202, 125, 202, 133, 202, 133, 202, 125, 202, 125
        DC8 202, 133, 202, 125, 202, 125, 202, 125, 202, 125, 202, 125, 202
        DC8 125, 202, 125, 202, 133, 234, 141, 234, 141, 234, 141, 234, 141
        DC8 234, 141, 234, 141, 234, 141, 234, 141, 234, 133, 202, 133, 203
        DC8 125, 203, 125, 203, 125, 203, 125, 203, 125, 203, 125, 203, 125
        DC8 102, 198, 102, 198, 102, 198, 102, 198, 102, 198, 102, 190, 102
        DC8 190, 102, 198, 102, 198, 102, 198, 102, 198, 102, 198, 102, 198
        DC8 102, 190, 102, 198, 102, 198, 102, 198, 102, 190, 102, 190, 102
        DC8 190, 102, 190, 102, 190, 102, 190, 102, 190, 103, 190, 102, 190
        DC8 102, 190, 102, 190, 103, 190, 102, 190, 102, 190, 103, 190, 103
        DC8 190, 103, 190, 103, 190, 103, 190, 103, 190, 103, 190, 103, 190
        DC8 103, 190, 103, 190, 71, 182, 103, 190, 103, 190, 103, 190, 103, 190
        DC8 71, 182, 103, 190, 103, 190, 103, 190, 103, 182, 71, 182, 103, 190
        DC8 71, 182, 103, 182, 103, 190, 103, 182, 103, 190, 71, 182, 103, 182
        DC8 71, 182, 103, 182, 103, 182, 71, 182, 71, 182, 71, 182, 71, 182, 71
        DC8 182, 71, 182, 71, 182, 71, 174, 71, 182, 71, 182, 71, 182, 72, 182
        DC8 71, 182, 71, 182, 72, 182, 72, 174, 72, 174, 72, 182, 72, 182, 72
        DC8 182, 72, 174, 72, 174, 72, 174, 72, 182, 72, 174, 72, 174, 72, 174
        DC8 72, 174, 72, 174, 72, 174, 40, 174, 40, 174, 72, 174, 40, 174, 72
        DC8 174, 72, 174, 72, 174, 72, 174, 40, 174, 40, 174, 40, 174, 40, 174
        DC8 40, 174, 40, 174, 40, 174, 40, 174, 40, 174, 40, 174, 40, 174, 40
        DC8 174, 72, 174, 40, 174, 72, 174, 72, 174, 72, 174, 72, 174, 72, 174
        DC8 72, 174, 72, 174, 40, 174, 40, 174, 40, 174, 72, 174, 40, 174, 40
        DC8 174, 40, 174, 40, 174, 40, 166, 40, 166, 40, 166, 40, 166, 40, 166
        DC8 40, 166, 40, 166, 40, 166, 41, 166, 41, 166, 41, 166, 41, 166, 41
        DC8 166, 41, 166, 41, 166, 41, 166, 41, 158, 41, 166, 41, 158, 41, 166
        DC8 41, 158, 41, 158, 41, 158, 41, 158, 41, 166, 41, 166, 9, 158, 41
        DC8 158, 9, 158, 9, 158, 9, 158, 9, 158, 9, 158, 9, 158, 41, 158, 9
        DC8 158, 9, 158, 9, 158, 9, 158, 41, 158, 41, 158, 41, 166, 41, 166, 40
        DC8 166, 41, 166, 41, 166, 41, 166, 41, 166, 41, 166, 41, 166, 9, 158
        DC8 9, 158, 9, 158, 9, 158, 9, 158, 9, 150, 9, 158, 9, 150, 9, 150, 9
        DC8 150, 9, 150, 9, 150, 9, 158, 9, 150, 9, 150, 9, 150, 9, 150, 9, 150
        DC8 9, 150, 9, 150, 9, 150, 9, 150, 9, 150, 9, 150, 9, 150, 9, 150, 9
        DC8 150, 9, 150, 9, 150, 9, 158, 9, 158, 9, 158, 9, 158, 9, 158, 9, 158
        DC8 9, 158, 9, 158, 9, 150, 234, 149, 234, 149, 234, 141, 234, 141, 10
        DC8 142, 10, 142, 234, 141, 10, 142, 234, 141, 234, 141, 234, 141, 234
        DC8 141, 234, 141, 234, 141, 234, 141, 234, 141, 234, 141, 234, 141
        DC8 234, 141, 234, 141, 234, 141, 234, 141, 234, 141, 233, 149, 9, 150
        DC8 9, 150, 9, 150, 9, 150, 9, 150, 9, 150, 233, 149, 9, 150, 234, 141
        DC8 234, 141, 234, 133, 234, 141, 234, 133, 234, 133, 235, 133, 234
        DC8 141, 234, 141, 234, 141, 234, 133, 234, 133, 202, 133, 234, 133
        DC8 202, 133, 202, 133, 202, 133, 202, 133, 202, 133, 202, 133, 234
        DC8 133, 234, 141, 234, 149, 234, 149, 234, 149, 234, 141, 234, 141
        DC8 234, 141, 10, 150, 234, 141, 234, 141, 202, 133, 202, 133, 202, 133
        DC8 202, 133, 202, 133, 202, 133, 202, 133, 202, 125, 202, 125, 202
        DC8 133, 202, 133, 202, 125, 202, 125, 203, 125, 202, 125, 202, 125
        DC8 202, 125, 170, 125, 202, 125, 202, 133, 234, 141, 234, 141, 234
        DC8 141, 234, 141, 234, 141, 234, 141, 234, 141, 234, 141, 234, 141
        DC8 202, 133, 202, 125, 203, 125, 202, 125, 203, 125, 202, 125, 203
        DC8 125, 203, 125, 203, 125, 203, 125, 102, 198, 102, 198, 102, 198
        DC8 102, 198, 102, 198, 102, 190, 102, 198, 102, 198, 102, 190, 102
        DC8 198, 102, 198, 134, 198, 102, 198, 102, 198, 102, 198, 102, 198
        DC8 134, 198, 102, 190, 102, 190, 103, 190, 102, 190, 103, 190, 103
        DC8 190, 102, 190, 102, 190, 102, 190, 102, 190, 102, 190, 103, 190
        DC8 103, 190, 102, 190, 103, 190, 103, 190, 103, 190, 103, 190, 103
        DC8 190, 103, 190, 103, 190, 103, 190, 103, 190, 103, 190, 103, 190
        DC8 103, 190, 103, 190, 103, 190, 71, 182, 103, 190, 71, 182, 71, 182
        DC8 103, 190, 103, 190, 103, 182, 71, 182, 103, 182, 71, 182, 71, 182
        DC8 71, 182, 71, 182, 71, 182, 71, 182, 71, 182, 71, 182, 103, 182, 71
        DC8 182, 103, 190, 71, 182, 103, 182, 71, 182, 71, 182, 71, 182, 71
        DC8 182, 71, 182, 71, 182, 71, 182, 71, 182, 71, 182, 71, 182, 71, 182
        DC8 71, 182, 72, 182, 72, 182, 71, 182, 72, 182, 71, 182, 71, 174, 72
        DC8 174, 72, 174, 72, 174, 72, 174, 72, 174, 72, 174, 72, 174, 40, 174
        DC8 72, 174, 72, 174, 72, 174, 72, 174, 72, 174, 72, 174, 40, 174, 72
        DC8 174, 72, 174, 40, 174, 72, 174, 72, 174, 40, 174, 40, 174, 40, 174
        DC8 72, 174, 72, 174, 72, 174, 40, 174, 72, 174, 72, 174, 72, 174, 72
        DC8 174, 72, 174, 72, 174, 72, 174, 72, 174, 72, 174, 72, 174, 40, 174
        DC8 40, 174, 40, 166, 40, 166, 40, 166, 40, 166, 40, 166, 40, 166, 72
        DC8 166, 40, 166, 40, 166, 40, 166, 40, 166, 40, 166, 40, 166, 40, 166
        DC8 40, 166, 41, 166, 41, 166, 41, 166, 41, 158, 41, 166, 41, 166, 41
        DC8 158, 41, 166, 41, 166, 41, 166, 41, 158, 41, 158, 41, 158, 41, 166
        DC8 41, 158, 41, 166, 9, 158, 9, 158, 41, 158, 9, 158, 9, 158, 9, 158
        DC8 9, 158, 9, 158, 9, 158, 41, 158, 9, 158, 41, 158, 41, 166, 41, 166
        DC8 41, 166, 41, 166, 41, 158, 41, 166, 41, 166, 41, 166, 41, 166, 41
        DC8 166, 9, 158, 9, 158, 9, 150, 9, 150, 9, 150, 9, 150, 9, 158, 9, 150
        DC8 9, 150, 9, 150, 9, 158, 9, 158, 9, 150, 9, 150, 9, 150, 9, 150, 233
        DC8 149, 9, 150, 9, 150, 9, 150, 9, 150, 9, 150, 9, 150, 9, 150, 9, 150
        DC8 233, 149, 234, 149, 9, 150, 9, 150, 9, 158, 9, 158, 9, 158, 9, 158
        DC8 9, 158, 9, 158, 9, 158, 9, 158, 9, 158, 9, 150, 233, 149, 234, 141
        DC8 234, 141, 234, 149, 234, 141, 234, 141, 234, 149, 234, 149, 234
        DC8 149, 234, 141, 234, 141, 234, 141, 234, 141, 234, 141, 234, 141
        DC8 234, 141, 234, 141, 234, 141, 234, 141, 234, 141, 234, 141, 234
        DC8 141, 234, 149, 234, 149, 9, 150, 9, 150, 9, 150, 9, 150, 9, 150, 9
        DC8 150, 233, 149, 233, 149, 233, 149, 234, 141, 234, 141, 234, 141
        DC8 234, 141, 234, 141, 234, 141, 234, 133, 234, 133, 202, 133, 234
        DC8 133, 234, 141, 234, 133, 202, 133, 234, 141, 234, 141, 202, 133
        DC8 202, 133, 202, 133, 202, 133, 202, 133, 234, 141, 234, 141, 233
        DC8 149, 234, 149, 234, 149, 234, 141, 10, 142, 234, 149, 234, 149, 234
        DC8 141, 202, 133, 202, 133, 202, 133, 202, 133, 202, 133, 202, 133
        DC8 202, 133, 202, 133, 202, 133, 202, 133, 202, 125, 202, 125, 202
        DC8 133, 202, 125, 202, 133, 202, 125, 202, 125, 202, 125, 202, 125
        DC8 202, 133, 234, 133, 234, 141, 234, 141, 234, 141, 234, 141, 234
        DC8 141, 234, 141, 234, 141, 234, 141, 234, 133, 202, 125, 171, 125
        DC8 203, 125, 203, 125, 202, 125, 203, 125, 203, 125, 203, 125, 203
        DC8 125, 203, 125, 203, 125, 134, 198, 134, 198, 102, 198, 102, 198
        DC8 102, 190, 102, 190, 102, 198, 102, 190, 102, 198, 102, 198, 102
        DC8 190, 102, 198, 102, 190, 102, 190, 102, 198, 102, 198, 102, 190
        DC8 102, 198, 102, 190, 102, 190, 102, 190, 102, 190, 102, 190, 103
        DC8 190, 102, 190, 102, 190, 102, 190, 102, 190, 103, 190, 103, 190
        DC8 103, 190, 103, 190, 103, 190, 103, 190, 103, 190, 103, 190, 103
        DC8 190, 103, 190, 103, 190, 103, 190, 103, 190, 103, 190, 103, 182
        DC8 103, 190, 103, 190, 103, 190, 103, 190, 103, 182, 103, 190, 103
        DC8 190, 103, 182, 71, 182, 103, 182, 71, 182, 71, 182, 103, 182, 103
        DC8 182, 103, 182, 71, 182, 103, 182, 71, 182, 71, 182, 71, 182, 71
        DC8 182, 71, 182, 71, 182, 71, 182, 71, 182, 71, 182, 71, 182, 71, 182
        DC8 71, 182, 71, 182, 71, 182, 71, 182, 71, 182, 71, 182, 71, 182, 71
        DC8 182, 71, 182, 71, 182, 71, 182, 71, 182, 71, 182, 72, 182, 71, 182
        DC8 71, 182, 72, 182, 71, 182, 72, 182, 72, 182, 72, 182, 72, 182, 72
        DC8 182, 72, 182, 72, 174, 72, 182, 72, 182, 72, 174, 72, 174, 72, 174
        DC8 71, 182, 72, 174, 72, 174, 40, 174, 72, 174, 72, 174, 72, 174, 72
        DC8 174, 40, 174, 72, 174, 72, 174, 72, 174, 72, 174, 72, 174, 40, 174
        DC8 40, 174, 40, 174, 40, 166, 40, 174, 40, 166, 40, 166, 40, 166, 40
        DC8 166, 40, 166, 40, 166, 40, 166, 40, 166, 40, 166, 40, 166, 40, 166
        DC8 40, 166, 41, 166, 40, 166, 40, 166, 41, 166, 40, 166, 40, 166, 40
        DC8 166, 41, 166, 40, 166, 40, 166, 41, 166, 41, 158, 41, 166, 41, 166
        DC8 41, 166, 41, 158, 40, 166, 41, 158, 9, 158, 40, 158, 41, 158, 41
        DC8 158, 41, 166, 41, 158, 9, 158, 41, 158, 9, 158, 41, 158, 9, 158, 9
        DC8 158, 9, 158, 41, 166, 41, 166, 41, 166, 41, 166, 41, 166, 41, 166
        DC8 41, 166, 41, 166, 41, 166, 41, 166, 9, 158, 41, 166, 9, 158, 9, 158
        DC8 9, 158, 9, 158, 9, 158, 9, 158, 9, 158, 9, 158, 9, 150, 9, 150, 9
        DC8 158, 9, 158, 9, 150, 9, 158, 9, 150, 9, 150, 10, 158, 10, 158, 9
        DC8 150, 9, 150, 9, 150, 9, 150, 9, 150, 9, 150, 233, 149, 9, 150, 9
        DC8 150, 9, 150, 9, 158, 9, 158, 9, 158, 9, 158, 9, 158, 9, 158, 9, 158
        DC8 9, 158, 9, 158, 9, 158, 9, 150, 233, 149, 234, 149, 234, 149, 234
        DC8 149, 234, 141, 234, 149, 234, 149, 233, 149, 10, 142, 234, 149, 233
        DC8 149, 234, 141, 234, 141, 234, 141, 234, 141, 234, 141, 234, 141
        DC8 234, 141, 234, 141, 234, 141, 234, 141, 234, 141, 234, 149, 9, 150
        DC8 9, 150, 9, 150, 9, 150, 9, 150, 9, 150, 9, 150, 9, 150, 9, 150, 234
        DC8 141, 234, 141, 234, 141, 234, 141, 234, 141, 234, 133, 234, 141
        DC8 234, 141, 234, 141, 234, 133, 234, 141, 234, 133, 234, 141, 234
        DC8 133, 202, 133, 202, 133, 234, 133, 234, 133, 202, 133, 202, 133
        DC8 234, 133, 234, 141, 234, 141, 234, 149, 234, 149, 234, 149, 234
        DC8 149, 234, 149, 234, 141, 234, 141, 234, 141, 234, 141, 202, 133
        DC8 202, 133, 202, 133, 202, 133, 202, 133, 202, 133, 202, 133, 202
        DC8 133, 202, 133, 202, 133, 202, 133, 202, 133, 202, 133, 202, 133
        DC8 202, 125, 202, 125, 202, 125, 202, 125, 202, 133, 234, 133, 234
        DC8 141, 233, 141, 234, 141, 234, 141, 234, 141, 234, 141, 234, 141
        DC8 234, 141, 234, 133, 202, 133, 203, 125, 202, 125, 202, 125, 202
        DC8 125, 203, 125, 203, 125, 203, 125, 203, 125, 203, 125, 203, 125
        DC8 203, 125, 203, 125, 102, 198, 134, 198, 134, 198, 134, 198, 102
        DC8 198, 102, 198, 102, 190, 102, 190, 102, 190, 102, 190, 102, 190
        DC8 102, 190, 102, 190, 102, 198, 102, 190, 102, 190, 102, 198, 102
        DC8 190, 102, 190, 102, 190, 102, 190, 102, 190, 102, 190, 102, 190
        DC8 102, 190, 102, 190, 102, 190, 103, 190, 103, 190, 103, 190, 103
        DC8 190, 103, 190, 103, 190, 103, 190, 103, 190, 103, 190, 103, 190
        DC8 103, 190, 103, 190, 103, 190, 103, 190, 103, 190, 103, 190, 103
        DC8 190, 103, 190, 103, 190, 103, 190, 103, 190, 103, 182, 103, 182
        DC8 103, 190, 71, 182, 103, 190, 103, 190, 71, 182, 103, 182, 103, 182
        DC8 103, 182, 103, 182, 103, 182, 71, 182, 71, 182, 71, 182, 103, 182
        DC8 71, 182, 71, 182, 71, 182, 71, 182, 71, 182, 71, 182, 71, 182, 71
        DC8 182, 71, 182, 71, 182, 71, 182, 71, 182, 71, 182, 71, 182, 71, 182
        DC8 72, 182, 72, 182, 72, 182, 71, 182, 71, 182, 71, 182, 71, 182, 71
        DC8 182, 72, 182, 72, 182, 72, 182, 72, 182, 72, 182, 72, 182, 72, 182
        DC8 72, 182, 72, 182, 72, 174, 72, 174, 72, 182, 72, 174, 72, 182, 72
        DC8 174, 72, 174, 72, 174, 72, 174, 72, 174, 40, 174, 72, 174, 72, 174
        DC8 40, 174, 40, 174, 40, 174, 40, 166, 40, 174, 40, 166, 40, 166, 40
        DC8 166, 40, 166, 40, 166, 40, 166, 40, 166, 40, 166, 40, 166, 40, 166
        DC8 40, 166, 40, 166, 40, 166, 40, 166, 40, 166, 40, 166, 40, 166, 40
        DC8 166, 41, 166, 40, 166, 40, 166, 40, 166, 40, 158, 41, 166, 41, 166
        DC8 41, 166, 41, 166, 41, 166, 40, 166, 41, 166, 41, 166, 41, 166, 41
        DC8 158, 41, 166, 41, 166, 41, 166, 41, 158, 41, 158, 41, 158, 41, 158
        DC8 41, 166, 9, 158, 9, 158, 41, 166, 8, 158, 41, 166, 41, 158, 40, 166
        DC8 40, 166, 41, 166, 41, 166, 41, 166, 41, 166, 41, 166, 41, 166, 41
        DC8 166, 41, 166, 41, 158, 9, 158, 9, 158, 9, 158, 9, 158, 9, 158, 9
        DC8 158, 9, 158, 9, 158, 9, 158, 9, 158, 9, 158, 9, 158, 9, 158, 9, 150
        DC8 9, 158, 9, 150, 9, 158, 9, 158, 9, 150, 9, 150, 9, 158, 9, 150, 233
        DC8 149, 9, 150, 9, 150, 9, 150, 233, 149, 233, 149, 9, 158, 9, 158, 9
        DC8 158, 41, 158, 41, 158, 9, 158, 9, 158, 9, 158, 41, 158, 9, 158, 9
        DC8 150, 9, 150, 234, 149, 233, 141, 9, 150, 234, 149, 234, 149, 234
        DC8 149, 234, 141, 234, 141, 234, 149, 234, 149, 234, 141, 234, 141
        DC8 234, 141, 10, 142, 234, 141, 234, 141, 234, 141, 234, 141, 234, 141
        DC8 234, 141, 234, 141, 234, 141, 234, 149, 9, 150, 9, 150, 9, 158, 233
        DC8 149, 9, 150, 9, 150, 9, 150, 9, 150, 233, 149, 234, 141, 234, 141
        DC8 234, 141, 234, 141, 234, 133, 234, 141, 202, 133, 234, 141, 234
        DC8 141, 234, 141, 234, 141, 202, 133, 234, 141, 234, 133, 234, 133
        DC8 234, 141, 234, 133, 234, 133, 234, 133, 202, 133, 234, 133, 234
        DC8 141, 234, 141, 233, 149, 234, 149, 234, 149, 234, 149, 234, 149
        DC8 234, 149, 233, 149, 233, 141, 234, 141, 202, 133, 202, 133, 202
        DC8 133, 202, 133, 202, 133, 202, 133, 202, 133, 202, 133, 202, 133
        DC8 202, 133, 202, 133, 202, 133, 202, 125, 202, 133, 202, 133, 202
        DC8 125, 202, 125, 202, 125, 202, 125, 202, 133, 234, 141, 234, 141
        DC8 234, 141, 234, 141, 234, 141, 234, 141, 234, 141, 234, 141, 234
        DC8 141, 202, 133, 202, 125, 202, 125, 202, 125, 203, 125, 203, 125
        DC8 202, 125, 202, 125, 203, 125, 203, 125, 170, 125, 171, 125, 203
        DC8 125, 170, 125, 203, 125, 102, 198, 102, 198, 134, 198, 134, 198
        DC8 134, 198, 134, 198, 102, 198, 102, 198, 102, 198, 102, 190, 102
        DC8 190, 102, 190, 134, 190, 135, 198, 102, 190, 102, 190, 102, 190
        DC8 102, 190, 102, 190, 102, 198, 102, 198, 102, 190, 102, 190, 103
        DC8 190, 102, 190, 102, 190, 102, 190, 102, 190, 102, 190, 103, 190
        DC8 103, 190, 103, 190, 103, 190, 103, 190, 103, 190, 103, 190, 103
        DC8 190, 103, 190, 103, 190, 103, 190, 103, 190, 103, 190, 103, 190
        DC8 103, 190, 103, 190, 103, 190, 103, 182, 103, 190, 71, 182, 103, 190
        DC8 71, 182, 103, 182, 103, 190, 103, 190, 71, 182, 71, 182, 103, 182
        DC8 103, 182, 71, 182, 103, 182, 71, 182, 103, 182, 71, 182, 71, 182
        DC8 71, 182, 71, 182, 71, 182, 71, 182, 71, 182, 71, 182, 71, 182, 71
        DC8 182, 71, 182, 71, 182, 71, 182, 71, 182, 71, 182, 71, 182, 71, 182
        DC8 71, 182, 72, 182, 72, 182, 72, 174, 72, 182, 71, 174, 72, 174, 71
        DC8 174, 72, 182, 72, 174, 72, 174, 72, 174, 72, 174, 72, 174, 72, 174
        DC8 72, 174, 72, 174, 72, 174, 72, 174, 40, 174, 72, 174, 72, 174, 72
        DC8 174, 72, 174, 72, 174, 72, 174, 40, 174, 40, 174, 72, 174, 40, 174
        DC8 40, 174, 40, 166, 40, 166, 40, 166, 40, 166, 40, 166, 40, 166, 40
        DC8 166, 40, 166, 40, 166, 40, 166, 40, 166, 40, 166, 40, 166, 40, 166
        DC8 40, 166, 41, 166, 40, 166, 40, 166, 40, 166, 40, 166, 40, 166, 41
        DC8 166, 41, 166, 40, 166, 40, 166, 40, 166, 41, 166, 41, 166, 41, 166
        DC8 40, 166, 41, 166, 41, 166, 40, 166, 40, 166, 41, 166, 41, 166, 41
        DC8 158, 41, 166, 41, 166, 41, 158, 41, 158, 41, 158, 41, 158, 40, 158
        DC8 41, 158, 41, 158, 40, 166, 41, 166, 40, 166, 40, 166, 40, 166, 40
        DC8 166, 40, 166, 41, 166, 41, 166, 41, 166, 41, 166, 41, 166, 9, 158
        DC8 9, 158, 9, 158, 9, 158, 9, 158, 9, 158, 9, 158, 9, 158, 9, 158, 9
        DC8 158, 9, 158, 9, 158, 9, 158, 9, 158, 9, 158, 9, 158, 9, 150, 9, 158
        DC8 9, 150, 9, 158, 9, 158, 9, 150, 9, 150, 9, 150, 10, 150, 10, 150, 9
        DC8 150, 233, 149, 9, 150, 9, 150, 9, 158, 9, 158, 9, 158, 9, 158, 9
        DC8 158, 9, 158, 41, 158, 41, 158, 9, 158, 9, 150, 9, 150, 233, 141, 9
        DC8 150, 233, 149, 10, 150, 9, 150, 9, 150, 9, 150, 234, 149, 234, 141
        DC8 234, 149, 234, 141, 234, 141, 234, 141, 234, 141, 234, 141, 234
        DC8 141, 234, 149, 234, 141, 234, 141, 234, 141, 234, 141, 234, 141
        DC8 234, 141, 233, 149, 9, 150, 9, 158, 9, 158, 9, 150, 233, 149, 9
        DC8 158, 9, 150, 9, 150, 9, 150, 234, 141, 234, 141, 234, 141, 234, 141
        DC8 234, 141, 234, 141, 234, 141, 234, 141, 234, 141, 234, 141, 234
        DC8 141, 234, 133, 234, 141, 234, 133, 234, 133, 234, 141, 234, 133
        DC8 234, 141, 202, 133, 202, 133, 202, 133, 234, 141, 233, 149, 234
        DC8 149, 234, 149, 9, 150, 234, 149, 234, 149, 234, 149, 234, 149, 234
        DC8 149, 234, 141, 202, 133, 202, 133, 202, 133, 202, 133, 202, 133
        DC8 202, 133, 202, 133, 202, 133, 202, 133, 202, 133, 202, 133, 202
        DC8 133, 202, 133, 202, 133, 202, 125, 202, 133, 202, 133, 202, 125
        DC8 202, 125, 202, 133, 234, 141, 234, 141, 234, 141, 234, 141, 234
        DC8 141, 234, 141, 234, 141, 234, 141, 234, 141, 234, 133, 202, 125
        DC8 170, 125, 202, 125, 202, 125, 202, 125, 202, 125, 202, 125, 202
        DC8 125, 202, 125, 203, 125, 171, 125, 171, 125, 202, 125, 170, 125
        DC8 171, 125, 170, 125, 102, 198, 102, 198, 102, 198, 102, 198, 134
        DC8 198, 134, 198, 134, 198, 102, 198, 102, 198, 102, 190, 102, 190
        DC8 102, 190, 102, 190, 134, 190, 102, 190, 102, 190, 103, 190, 102
        DC8 190, 102, 190, 102, 190, 102, 190, 102, 198, 102, 190, 102, 190
        DC8 102, 190, 102, 190, 102, 190, 103, 190, 102, 190, 102, 190, 102
        DC8 190, 103, 190, 103, 190, 103, 190, 103, 190, 103, 190, 103, 190
        DC8 103, 190, 103, 190, 103, 190, 103, 190, 103, 190, 103, 190, 103
        DC8 190, 103, 190, 103, 190, 103, 190, 71, 182, 103, 190, 103, 190, 103
        DC8 190, 71, 182, 103, 182, 71, 182, 71, 182, 103, 182, 103, 182, 103
        DC8 182, 103, 182, 103, 182, 71, 182, 71, 182, 71, 182, 103, 182, 72
        DC8 182, 71, 182, 71, 182, 71, 182, 71, 182, 71, 182, 71, 182, 71, 182
        DC8 71, 182, 72, 182, 71, 182, 71, 182, 72, 182, 72, 182, 72, 182, 72
        DC8 182, 72, 174, 72, 182, 72, 182, 72, 182, 72, 174, 72, 174, 72, 174
        DC8 72, 174, 71, 174, 72, 174, 72, 174, 72, 174, 72, 174, 40, 174, 40
        DC8 174, 40, 174, 72, 174, 72, 174, 72, 174, 72, 174, 72, 174, 72, 174
        DC8 40, 174, 40, 174, 40, 174, 40, 174, 72, 174, 40, 174, 40, 174, 72
        DC8 174, 72, 174, 40, 166, 40, 166, 40, 166, 40, 166, 40, 166, 40, 174
        DC8 40, 166, 40, 166, 40, 166, 40, 166, 40, 166, 40, 166, 40, 166, 40
        DC8 166, 40, 166, 40, 166, 41, 166, 40, 166, 40, 166, 41, 166, 40, 166
        DC8 40, 166, 40, 166, 40, 166, 40, 166, 41, 166, 41, 166, 40, 166, 41
        DC8 166, 40, 166, 41, 166, 41, 166, 41, 166, 41, 166, 41, 166, 41, 166
        DC8 41, 166, 41, 158, 40, 158, 41, 166, 40, 166, 40, 166, 41, 166, 40
        DC8 166, 40, 166, 40, 166, 41, 166, 40, 166, 40, 166, 40, 166, 40, 166
        DC8 40, 166, 41, 166, 41, 158, 9, 158, 9, 158, 9, 158, 9, 158, 9, 158
        DC8 9, 158, 9, 158, 9, 158, 9, 158, 9, 158, 9, 158, 9, 158, 9, 158, 9
        DC8 158, 9, 158, 9, 158, 9, 158, 9, 158, 9, 158, 9, 150, 9, 150, 9, 158
        DC8 9, 158, 9, 150, 9, 150, 9, 150, 9, 150, 10, 150, 9, 158, 9, 150, 9
        DC8 158, 9, 158, 41, 158, 41, 166, 9, 158, 9, 158, 9, 158, 9, 158, 9
        DC8 158, 9, 158, 9, 158, 233, 149, 234, 149, 233, 149, 233, 149, 9, 150
        DC8 9, 150, 233, 149, 233, 149, 9, 150, 233, 149, 9, 150, 233, 149, 234
        DC8 141, 234, 149, 234, 149, 234, 149, 234, 141, 234, 141, 234, 141
        DC8 234, 141, 234, 149, 234, 141, 234, 141, 234, 141, 9, 150, 9, 150, 9
        DC8 150, 9, 158, 10, 158, 9, 150, 9, 150, 9, 150, 9, 150, 233, 149, 234
        DC8 141, 234, 141, 234, 141, 234, 141, 234, 141, 234, 141, 234, 141
        DC8 234, 141, 234, 141, 234, 141, 234, 141, 234, 141, 234, 141, 234
        DC8 133, 234, 141, 234, 133, 234, 141, 234, 133, 234, 141, 234, 133
        DC8 234, 141, 234, 141, 234, 149, 233, 149, 233, 149, 233, 149, 234
        DC8 149, 234, 149, 234, 149, 10, 150, 234, 149, 234, 141, 234, 133, 202
        DC8 133, 202, 133, 202, 133, 202, 133, 202, 133, 202, 133, 202, 133
        DC8 202, 133, 202, 133, 203, 133, 202, 133, 202, 133, 202, 133, 202
        DC8 133, 202, 133, 202, 133, 202, 125, 202, 133, 202, 133, 234, 133
        DC8 234, 141, 234, 141, 234, 141, 234, 141, 234, 141, 234, 141, 234
        DC8 141, 234, 141, 234, 141, 202, 133, 203, 125, 202, 125, 202, 125
        DC8 202, 125, 202, 125, 203, 125, 203, 125, 202, 125, 202, 125, 202
        DC8 125, 202, 125, 203, 125, 203, 125, 170, 125, 170, 125, 171, 125
        DC8 171, 125, 102, 198, 134, 198, 102, 190, 102, 198, 102, 198, 102
        DC8 198, 134, 198, 102, 198, 102, 198, 102, 198, 102, 198, 134, 198
        DC8 102, 190, 102, 190, 102, 190, 103, 190, 103, 190, 102, 198, 102
        DC8 190, 102, 190, 102, 190, 102, 190, 102, 190, 102, 190, 102, 190
        DC8 103, 190, 102, 190, 103, 190, 102, 190, 102, 190, 102, 190, 103
        DC8 190, 103, 190, 103, 190, 103, 190, 103, 190, 103, 190, 103, 190
        DC8 103, 190, 103, 190, 103, 190, 103, 190, 103, 190, 103, 190, 103
        DC8 182, 103, 190, 103, 190, 103, 182, 103, 190, 103, 190, 71, 182, 103
        DC8 182, 103, 182, 103, 190, 71, 182, 71, 182, 103, 182, 103, 182, 103
        DC8 182, 103, 182, 71, 182, 103, 182, 71, 182, 71, 182, 71, 182, 71
        DC8 182, 71, 182, 71, 182, 71, 182, 71, 182, 72, 182, 71, 182, 71, 182
        DC8 71, 182, 71, 182, 71, 182, 72, 182, 72, 182, 72, 182, 72, 182, 72
        DC8 174, 72, 182, 72, 182, 72, 174, 72, 174, 72, 174, 72, 174, 72, 174
        DC8 72, 174, 72, 174, 72, 174, 72, 174, 72, 174, 72, 174, 72, 174, 72
        DC8 174, 72, 174, 72, 174, 72, 174, 72, 174, 72, 174, 40, 174, 40, 174
        DC8 40, 174, 40, 174, 40, 174, 72, 174, 40, 174, 40, 166, 40, 166, 40
        DC8 174, 40, 174, 40, 174, 40, 166, 40, 166, 40, 166, 40, 166, 40, 166
        DC8 40, 166, 40, 166, 40, 166, 40, 166, 40, 166, 40, 166, 40, 166, 41
        DC8 166, 41, 166, 40, 166, 41, 166, 41, 166, 40, 166, 40, 166, 40, 166
        DC8 40, 166, 40, 166, 40, 166, 41, 166, 41, 166, 41, 166, 41, 166, 41
        DC8 166, 41, 166, 41, 158, 41, 158, 41, 166, 41, 166, 41, 166, 40, 166
        DC8 40, 166, 40, 166, 40, 166, 41, 166, 40, 166, 40, 166, 41, 166, 40
        DC8 166, 40, 166, 40, 166, 40, 166, 40, 166, 41, 158, 9, 158, 9, 158, 9
        DC8 158, 9, 158, 9, 158, 9, 158, 9, 158, 9, 158, 9, 158, 9, 158, 9, 158
        DC8 9, 158, 9, 158, 9, 158, 9, 158, 9, 158, 9, 158, 9, 158, 9, 158, 9
        DC8 158, 9, 158, 9, 158, 9, 158, 9, 158, 9, 150, 9, 150, 9, 150, 9, 150
        DC8 9, 150, 9, 150, 9, 158, 9, 158, 9, 158, 9, 158, 41, 158, 41, 166, 9
        DC8 158, 9, 158, 9, 158, 9, 158, 9, 158, 9, 158, 9, 150, 233, 149, 234
        DC8 149, 9, 150, 9, 150, 9, 150, 9, 150, 10, 150, 9, 150, 9, 150, 234
        DC8 149, 233, 149, 9, 150, 9, 150, 9, 150, 234, 149, 234, 149, 234, 149
        DC8 234, 141, 234, 141, 234, 141, 234, 141, 234, 141, 234, 141, 234
        DC8 149, 9, 150, 9, 150, 9, 158, 9, 150, 9, 150, 9, 150, 9, 150, 9, 150
        DC8 9, 150, 233, 141, 234, 141, 234, 141, 234, 141, 234, 141, 234, 141
        DC8 234, 141, 234, 141, 234, 141, 234, 141, 234, 141, 234, 141, 234
        DC8 141, 234, 141, 234, 141, 234, 141, 234, 141, 234, 141, 234, 133
        DC8 234, 133, 234, 133, 234, 133, 234, 141, 234, 141, 234, 149, 234
        DC8 149, 234, 149, 234, 149, 234, 149, 234, 149, 234, 149, 234, 149
        DC8 234, 141, 202, 133, 202, 133, 202, 133, 202, 133, 203, 133, 202
        DC8 133, 202, 133, 202, 133, 202, 133, 202, 133, 202, 133, 202, 133
        DC8 202, 133, 202, 133, 202, 133, 202, 133, 202, 133, 202, 133, 202
        DC8 125, 202, 133, 234, 133, 234, 141, 234, 141, 234, 141, 234, 141
        DC8 234, 141, 234, 141, 234, 141, 234, 141, 234, 141, 202, 133, 202
        DC8 125, 203, 125, 202, 125, 202, 125, 202, 125, 203, 125, 203, 125
        DC8 202, 125, 202, 125, 202, 125, 202, 125, 203, 125, 202, 125, 203
        DC8 125, 203, 125, 202, 125, 203, 125, 202, 125, 202, 125, 102, 198
        DC8 102, 198, 102, 198, 102, 198, 102, 198, 102, 190, 102, 198, 102
        DC8 198, 102, 198, 102, 198, 102, 198, 102, 198, 102, 198, 102, 190
        DC8 102, 190, 102, 190, 102, 190, 102, 190, 103, 190, 102, 190, 102
        DC8 190, 102, 190, 102, 190, 102, 190, 102, 190, 102, 190, 102, 190
        DC8 102, 190, 102, 190, 102, 190, 102, 190, 103, 190, 103, 190, 102
        DC8 190, 103, 190, 103, 190, 103, 190, 103, 190, 103, 190, 103, 190
        DC8 103, 190, 103, 190, 103, 190, 103, 190, 103, 190, 103, 182, 103
        DC8 190, 103, 190, 71, 182, 103, 190, 71, 182, 103, 182, 103, 182, 103
        DC8 190, 71, 182, 103, 182, 103, 182, 71, 182, 103, 182, 71, 182, 71
        DC8 182, 71, 182, 71, 182, 71, 182, 71, 182, 71, 182, 71, 182, 71, 182
        DC8 71, 182, 71, 182, 71, 182, 71, 182, 71, 182, 72, 182, 71, 182, 71
        DC8 182, 71, 182, 72, 174, 72, 182, 72, 182, 72, 182, 72, 182, 72, 174
        DC8 72, 182, 72, 174, 72, 182, 72, 174, 72, 174, 72, 174, 40, 174, 72
        DC8 174, 72, 174, 72, 174, 72, 174, 40, 174, 72, 174, 72, 174, 40, 174
        DC8 72, 174, 72, 174, 72, 174, 72, 174, 40, 166, 72, 174, 40, 174, 40
        DC8 174, 72, 174, 40, 174, 40, 166, 40, 174, 40, 166, 40, 174, 40, 174
        DC8 40, 174, 40, 174, 40, 166, 40, 166, 40, 166, 40, 166, 40, 166, 40
        DC8 166, 40, 166, 40, 166, 40, 166, 40, 166, 41, 166, 41, 166, 41, 166
        DC8 40, 166, 40, 166, 40, 166, 40, 166, 41, 166, 40, 166, 40, 166, 40
        DC8 166, 41, 166, 40, 166, 41, 166, 41, 166, 40, 166, 40, 166, 40, 166
        DC8 40, 166, 40, 166, 40, 166, 41, 166, 40, 166, 40, 166, 40, 166, 40
        DC8 166, 40, 166, 40, 166, 40, 166, 41, 166, 40, 166, 40, 166, 41, 158
        DC8 41, 158, 9, 158, 9, 158, 9, 158, 41, 166, 9, 158, 9, 158, 9, 158, 9
        DC8 158, 9, 158, 9, 158, 9, 158, 9, 158, 9, 158, 9, 158, 9, 158, 9, 158
        DC8 9, 158, 9, 158, 9, 158, 9, 158, 9, 150, 9, 158, 9, 158, 9, 158, 9
        DC8 158, 9, 158, 9, 150, 9, 158, 9, 150, 9, 150, 9, 158, 9, 158, 9, 158
        DC8 9, 158, 9, 158, 9, 158, 41, 166, 41, 158, 9, 158, 9, 158, 9, 158, 9
        DC8 158, 9, 150, 9, 150, 233, 149, 234, 149, 9, 150, 9, 150, 10, 150
        DC8 234, 149, 233, 149, 234, 149, 9, 150, 9, 150, 234, 149, 233, 149
        DC8 233, 149, 234, 149, 233, 149, 234, 149, 233, 149, 233, 149, 234
        DC8 149, 9, 150, 234, 141, 234, 149, 233, 149, 9, 150, 9, 150, 9, 158
        DC8 9, 158, 9, 150, 9, 150, 9, 158, 9, 150, 9, 150, 233, 149, 234, 141
        DC8 234, 141, 234, 141, 234, 141, 234, 141, 234, 141, 234, 141, 234
        DC8 141, 234, 141, 234, 141, 234, 141, 234, 141, 234, 141, 234, 141
        DC8 234, 141, 234, 141, 234, 141, 234, 141, 234, 141, 234, 133, 234
        DC8 133, 234, 141, 234, 141, 9, 150, 233, 149, 234, 149, 233, 149, 233
        DC8 149, 234, 149, 233, 149, 234, 149, 234, 141, 234, 141, 202, 133
        DC8 202, 133, 202, 133, 202, 133, 202, 133, 202, 133, 234, 133, 202
        DC8 133, 202, 133, 202, 133, 202, 133, 202, 133, 202, 133, 202, 133
        DC8 202, 133, 202, 133, 202, 133, 203, 133, 202, 133, 202, 133, 234
        DC8 141, 234, 141, 234, 141, 234, 141, 234, 141, 234, 141, 234, 141
        DC8 234, 141, 234, 141, 234, 133, 202, 125, 202, 125, 203, 125, 202
        DC8 125, 202, 125, 202, 125, 203, 125, 202, 125, 202, 125, 202, 125
        DC8 202, 125, 203, 125, 170, 125, 202, 125, 203, 125, 202, 125, 203
        DC8 125, 203, 125, 202, 125, 202, 133, 234, 141, 102, 198, 102, 198
        DC8 102, 198, 102, 190, 134, 198, 102, 198, 102, 198, 103, 190, 102
        DC8 190, 102, 190, 134, 198, 102, 198, 102, 198, 102, 198, 134, 198
        DC8 102, 190, 102, 198, 102, 190, 102, 190, 102, 190, 102, 190, 102
        DC8 190, 102, 190, 102, 190, 102, 190, 103, 190, 103, 190, 102, 190
        DC8 102, 190, 102, 190, 102, 190, 103, 190, 103, 190, 103, 190, 103
        DC8 190, 103, 190, 103, 190, 103, 190, 103, 190, 103, 190, 103, 190
        DC8 103, 190, 103, 190, 103, 190, 103, 190, 103, 190, 103, 190, 103
        DC8 190, 103, 190, 71, 182, 103, 182, 71, 182, 103, 182, 71, 182, 71
        DC8 182, 103, 182, 71, 182, 103, 182, 103, 182, 103, 182, 103, 182, 71
        DC8 182, 71, 182, 103, 182, 71, 182, 71, 182, 71, 182, 71, 182, 71, 182
        DC8 71, 182, 71, 182, 72, 182, 72, 182, 71, 182, 72, 182, 72, 182, 71
        DC8 182, 72, 182, 72, 174, 72, 174, 72, 182, 72, 182, 72, 182, 72, 182
        DC8 72, 174, 72, 174, 72, 182, 72, 174, 39, 174, 72, 174, 72, 174, 72
        DC8 174, 72, 174, 72, 174, 72, 174, 72, 174, 72, 174, 72, 174, 40, 174
        DC8 72, 174, 72, 174, 72, 174, 40, 174, 40, 174, 40, 174, 72, 174, 72
        DC8 174, 40, 174, 72, 166, 40, 174, 40, 166, 40, 166, 40, 166, 40, 166
        DC8 40, 166, 40, 174, 40, 174, 40, 166, 40, 166, 40, 166, 40, 166, 40
        DC8 166, 41, 166, 40, 166, 40, 166, 40, 166, 40, 166, 40, 166, 40, 166
        DC8 40, 166, 40, 166, 41, 166, 40, 166, 41, 166, 40, 166, 40, 166, 40
        DC8 166, 40, 166, 40, 166, 40, 166, 40, 166, 40, 166, 40, 166, 40, 166
        DC8 40, 166, 40, 166, 40, 166, 40, 166, 40, 166, 40, 166, 40, 166, 40
        DC8 166, 40, 166, 41, 166, 41, 166, 9, 158, 41, 158, 9, 158, 9, 158, 9
        DC8 158, 9, 158, 9, 158, 9, 158, 9, 158, 41, 158, 9, 158, 9, 158, 9
        DC8 158, 9, 158, 9, 158, 9, 158, 9, 158, 9, 158, 9, 158, 9, 158, 9, 158
        DC8 9, 158, 9, 158, 9, 158, 9, 158, 9, 158, 9, 150, 233, 149, 9, 150, 9
        DC8 158, 9, 158, 9, 158, 9, 158, 9, 158, 9, 158, 9, 158, 9, 158, 9, 158
        DC8 9, 158, 41, 158, 41, 166, 9, 158, 9, 158, 9, 150, 233, 149, 233
        DC8 149, 9, 150, 9, 150, 233, 149, 9, 150, 9, 150, 9, 150, 9, 150, 9
        DC8 150, 9, 150, 234, 149, 9, 150, 233, 149, 234, 149, 234, 149, 234
        DC8 149, 234, 149, 234, 149, 234, 149, 234, 149, 234, 149, 234, 149
        DC8 233, 141, 233, 149, 9, 150, 9, 150, 9, 158, 9, 158, 9, 158, 9, 150
        DC8 9, 150, 9, 158, 9, 150, 233, 149, 234, 141, 234, 141, 234, 141, 234
        DC8 141, 234, 141, 234, 141, 234, 141, 234, 141, 234, 141, 234, 141
        DC8 234, 141, 234, 141, 234, 141, 234, 141, 234, 141, 234, 141, 234
        DC8 141, 234, 141, 234, 141, 234, 141, 234, 141, 234, 141, 233, 149
        DC8 233, 149, 233, 149, 9, 150, 233, 149, 234, 149, 233, 149, 233, 149
        DC8 234, 149, 234, 141, 234, 141, 202, 133, 202, 133, 202, 133, 202
        DC8 133, 202, 133, 202, 133, 202, 133, 202, 133, 202, 133, 202, 133
        DC8 202, 133, 202, 133, 202, 133, 202, 125, 202, 133, 202, 133, 202
        DC8 133, 202, 133, 202, 133, 234, 133, 234, 141, 234, 141, 234, 141
        DC8 234, 141, 234, 141, 234, 141, 234, 141, 234, 141, 234, 141, 234
        DC8 141, 202, 133, 202, 125, 202, 125, 202, 125, 203, 125, 202, 125
        DC8 203, 125, 202, 125, 170, 125, 202, 125, 203, 125, 170, 125, 202
        DC8 125, 203, 125, 202, 125, 170, 125, 170, 125, 203, 125, 203, 125
        DC8 202, 133, 202, 133, 234, 133, 202, 133, 134, 198, 134, 198, 102
        DC8 198, 102, 198, 102, 190, 102, 198, 102, 190, 102, 190, 102, 190
        DC8 102, 190, 102, 190, 102, 198, 134, 198, 102, 190, 102, 198, 102
        DC8 198, 102, 198, 102, 190, 102, 190, 102, 190, 102, 190, 102, 190
        DC8 102, 190, 102, 190, 103, 190, 103, 190, 103, 190, 103, 190, 103
        DC8 190, 103, 190, 102, 190, 103, 190, 103, 190, 103, 190, 103, 190
        DC8 103, 190, 103, 190, 103, 190, 103, 190, 103, 190, 103, 190, 71, 182
        DC8 103, 190, 103, 190, 103, 190, 103, 182, 71, 182, 103, 190, 103, 190
        DC8 71, 182, 71, 182, 71, 182, 103, 190, 71, 182, 103, 182, 103, 182
        DC8 103, 182, 71, 182, 103, 182, 103, 182, 71, 182, 71, 182, 71, 182
        DC8 71, 182, 71, 182, 71, 182, 71, 182, 71, 182, 71, 182, 71, 182, 71
        DC8 182, 71, 182, 71, 182, 135, 189, 198, 196, 72, 182, 72, 182, 72
        DC8 182, 72, 182, 72, 182, 72, 174, 72, 182, 72, 182, 72, 174, 72, 174
        DC8 72, 182, 72, 174, 72, 174, 72, 174, 72, 174, 72, 174, 72, 174, 72
        DC8 174, 72, 174, 72, 174, 72, 174, 72, 174, 72, 174, 72, 174, 72, 174
        DC8 72, 174, 72, 174, 40, 174, 72, 174, 72, 174, 72, 174, 40, 174, 40
        DC8 174, 40, 166, 40, 174, 40, 174, 40, 174, 40, 166, 40, 166, 40, 166
        DC8 40, 166, 40, 174, 40, 174, 40, 166, 40, 166, 40, 166, 40, 166, 40
        DC8 166, 40, 166, 40, 166, 40, 166, 41, 166, 40, 166, 40, 166, 40, 166
        DC8 40, 166, 40, 166, 40, 166, 40, 166, 40, 166, 40, 166, 40, 166, 40
        DC8 166, 40, 166, 40, 166, 40, 166, 40, 166, 40, 166, 40, 166, 40, 166
        DC8 40, 166, 40, 166, 40, 166, 41, 166, 41, 166, 41, 158, 41, 166, 41
        DC8 158, 41, 166, 41, 166, 41, 158, 40, 166, 9, 158, 9, 158, 9, 158, 9
        DC8 158, 9, 158, 41, 158, 41, 158, 41, 158, 9, 158, 9, 158, 9, 158, 9
        DC8 158, 9, 158, 9, 158, 9, 158, 9, 158, 9, 158, 9, 158, 9, 158, 9, 158
        DC8 9, 158, 9, 158, 9, 158, 9, 158, 9, 158, 9, 158, 9, 158, 9, 158, 9
        DC8 158, 9, 158, 41, 166, 9, 158, 9, 158, 9, 158, 9, 158, 9, 158, 9
        DC8 158, 9, 158, 233, 149, 9, 150, 233, 149, 9, 150, 9, 150, 9, 150, 9
        DC8 150, 9, 150, 234, 149, 9, 150, 9, 150, 233, 149, 9, 150, 9, 150
        DC8 233, 149, 9, 150, 9, 150, 9, 150, 234, 149, 233, 149, 234, 149, 233
        DC8 149, 234, 149, 9, 150, 234, 141, 233, 149, 9, 150, 9, 150, 9, 158
        DC8 9, 158, 9, 158, 9, 150, 9, 158, 9, 150, 9, 158, 9, 150, 234, 141
        DC8 234, 141, 234, 141, 234, 141, 234, 141, 234, 141, 234, 141, 234
        DC8 141, 234, 141, 234, 141, 234, 141, 234, 141, 234, 141, 233, 141
        DC8 234, 141, 234, 141, 234, 141, 234, 141, 234, 141, 234, 141, 202
        DC8 133, 234, 141, 234, 141, 233, 141, 233, 149, 233, 149, 234, 149
        DC8 233, 149, 234, 149, 234, 149, 234, 149, 234, 149, 234, 149, 234
        DC8 141, 202, 133, 234, 133, 234, 133, 234, 133, 202, 133, 202, 133
        DC8 234, 133, 202, 133, 202, 133, 202, 133, 202, 133, 202, 133, 202
        DC8 133, 202, 133, 202, 133, 202, 133, 202, 133, 202, 133, 202, 133
        DC8 202, 133, 234, 141, 234, 141, 234, 141, 234, 141, 234, 141, 234
        DC8 141, 234, 141, 234, 141, 234, 141, 234, 141, 202, 133, 202, 125
        DC8 203, 125, 202, 125, 203, 125, 202, 125, 203, 125, 202, 125, 203
        DC8 125, 202, 125, 202, 125, 202, 125, 171, 125, 202, 125, 202, 125
        DC8 202, 125, 202, 125, 203, 125, 203, 125, 202, 133, 234, 133, 234
        DC8 141, 234, 133, 234, 141, 234, 133, 134, 198, 134, 198, 134, 198
        DC8 102, 198, 102, 190, 102, 198, 102, 190, 102, 190, 134, 198, 102
        DC8 190, 102, 190, 102, 198, 102, 190, 102, 190, 102, 190, 102, 190
        DC8 102, 198, 102, 190, 102, 190, 102, 190, 102, 190, 102, 190, 102
        DC8 190, 102, 190, 103, 190, 103, 190, 103, 190, 103, 190, 103, 190
        DC8 103, 190, 103, 190, 103, 190, 103, 190, 103, 190, 103, 190, 103
        DC8 190, 103, 190, 103, 190, 103, 190, 103, 190, 103, 190, 103, 190
        DC8 103, 190, 103, 190, 103, 190, 103, 190, 103, 190, 103, 182, 103
        DC8 190, 103, 182, 103, 190, 71, 182, 71, 182, 103, 182, 71, 182, 71
        DC8 182, 71, 182, 103, 182, 103, 182, 103, 182, 103, 182, 5, 204, 163
        DC8 232, 38, 189, 71, 182, 71, 182, 71, 182, 71, 182, 71, 182, 71, 182
        DC8 71, 182, 71, 182, 71, 182, 69, 211, 99, 232, 71, 182, 72, 182, 72
        DC8 182, 72, 182, 72, 182, 72, 174, 72, 174, 72, 182, 72, 182, 72, 174
        DC8 72, 174, 72, 174, 72, 174, 72, 174, 72, 174, 72, 174, 72, 174, 72
        DC8 174, 72, 174, 72, 174, 72, 174, 72, 174, 72, 174, 72, 174, 72, 174
        DC8 72, 174, 72, 174, 40, 174, 40, 174, 40, 174, 40, 174, 40, 174, 40
        DC8 174, 40, 166, 40, 166, 40, 166, 40, 166, 40, 166, 40, 166, 40, 166
        DC8 40, 166, 40, 166, 40, 166, 40, 166, 40, 166, 40, 166, 40, 174, 40
        DC8 166, 40, 166, 40, 166, 40, 166, 40, 166, 40, 166, 40, 166, 40, 166
        DC8 40, 166, 40, 166, 40, 166, 40, 166, 40, 174, 40, 166, 40, 166, 40
        DC8 166, 40, 166, 40, 166, 40, 166, 40, 166, 40, 166, 41, 166, 41, 166
        DC8 41, 166, 41, 166, 41, 158, 41, 166, 41, 158, 41, 158, 41, 158, 41
        DC8 166, 41, 166, 40, 166, 41, 166, 8, 173, 41, 166, 41, 158, 9, 158, 9
        DC8 158, 9, 158, 9, 158, 9, 158, 9, 158, 134, 187, 4, 225, 168, 180, 9
        DC8 158, 9, 158, 9, 158, 9, 158, 9, 158, 8, 173, 8, 173, 9, 158, 9, 158
        DC8 9, 158, 9, 158, 9, 158, 9, 158, 9, 158, 41, 166, 41, 166, 9, 158, 9
        DC8 158, 9, 158, 9, 158, 9, 158, 9, 158, 9, 158, 9, 158, 9, 158, 9, 158
        DC8 38, 187, 99, 232, 9, 150, 9, 150, 9, 150, 9, 150, 9, 150, 9, 150, 9
        DC8 150, 234, 149, 9, 150, 234, 149, 9, 150, 234, 149, 9, 150, 9, 150
        DC8 9, 150, 9, 150, 9, 150, 234, 149, 232, 164, 40, 172, 234, 149, 234
        DC8 141, 9, 150, 9, 158, 9, 158, 9, 158, 9, 150, 9, 150, 9, 158, 9, 158
        DC8 9, 158, 198, 202, 198, 194, 234, 141, 234, 141, 234, 141, 234, 141
        DC8 234, 141, 234, 141, 234, 141, 234, 141, 234, 141, 234, 141, 234
        DC8 141, 234, 141, 234, 141, 234, 141, 234, 141, 234, 141, 234, 141
        DC8 234, 141, 234, 141, 234, 141, 234, 141, 234, 141, 234, 141, 234
        DC8 149, 9, 150, 234, 149, 9, 150, 234, 149, 234, 149, 9, 150, 233, 149
        DC8 234, 149, 234, 149, 234, 141, 234, 141, 202, 133, 202, 133, 202
        DC8 133, 202, 133, 202, 133, 41, 141, 7, 187, 7, 187, 7, 187, 7, 187, 7
        DC8 187, 7, 179, 7, 187, 200, 171, 202, 133, 202, 133, 202, 133, 104
        DC8 156, 7, 187, 38, 187, 38, 187, 38, 187, 38, 187, 38, 187, 38, 187
        DC8 136, 164, 234, 141, 234, 141, 234, 141, 202, 133, 202, 133, 203
        DC8 125, 202, 125, 202, 125, 202, 125, 202, 125, 203, 125, 202, 125
        DC8 202, 125, 202, 125, 203, 125, 202, 125, 202, 125, 202, 125, 202
        DC8 125, 202, 125, 203, 125, 203, 125, 202, 125, 202, 133, 234, 133
        DC8 234, 141, 234, 133, 234, 141, 234, 141, 234, 133, 102, 198, 102
        DC8 198, 102, 198, 134, 198, 134, 198, 102, 198, 102, 190, 102, 190
        DC8 102, 190, 102, 190, 102, 198, 102, 190, 102, 190, 102, 190, 102
        DC8 190, 102, 190, 102, 190, 102, 190, 102, 198, 102, 190, 103, 190
        DC8 134, 190, 102, 198, 102, 190, 103, 190, 103, 190, 103, 190, 103
        DC8 190, 103, 190, 103, 190, 103, 190, 103, 190, 103, 190, 103, 190
        DC8 103, 190, 103, 190, 103, 190, 103, 190, 103, 190, 103, 190, 230
        DC8 196, 99, 232, 230, 204, 103, 190, 103, 190, 103, 182, 71, 182, 103
        DC8 190, 103, 190, 103, 190, 103, 182, 103, 182, 103, 182, 103, 190, 71
        DC8 182, 71, 182, 71, 182, 103, 182, 103, 182, 103, 182, 103, 182, 165
        DC8 218, 99, 232, 198, 196, 198, 196, 198, 196, 198, 196, 198, 196, 198
        DC8 196, 39, 189, 71, 182, 71, 182, 71, 182, 69, 211, 99, 232, 72, 182
        DC8 71, 182, 71, 182, 71, 182, 71, 182, 71, 182, 72, 182, 72, 182, 72
        DC8 182, 72, 182, 72, 174, 72, 174, 72, 174, 72, 174, 72, 174, 72, 174
        DC8 72, 174, 72, 174, 72, 174, 72, 174, 72, 174, 72, 174, 72, 174, 72
        DC8 174, 72, 174, 72, 174, 72, 174, 72, 174, 40, 174, 72, 174, 72, 174
        DC8 72, 174, 72, 174, 72, 174, 72, 174, 40, 174, 40, 174, 40, 174, 40
        DC8 174, 72, 174, 40, 174, 72, 174, 40, 174, 40, 174, 40, 174, 40, 174
        DC8 40, 174, 40, 174, 40, 174, 40, 166, 40, 174, 40, 174, 40, 166, 40
        DC8 166, 40, 166, 40, 166, 41, 166, 40, 166, 40, 166, 40, 166, 40, 166
        DC8 40, 166, 40, 166, 40, 166, 40, 166, 40, 166, 41, 166, 41, 166, 41
        DC8 166, 41, 166, 41, 158, 41, 166, 41, 166, 41, 166, 41, 166, 41, 158
        DC8 41, 166, 41, 158, 40, 158, 9, 158, 70, 195, 99, 232, 133, 210, 9
        DC8 158, 41, 166, 9, 158, 9, 158, 9, 158, 9, 158, 168, 165, 163, 232
        DC8 163, 232, 201, 165, 9, 158, 9, 158, 9, 158, 9, 158, 9, 158, 100
        DC8 217, 197, 217, 9, 158, 9, 158, 9, 158, 9, 158, 41, 166, 41, 158, 9
        DC8 166, 9, 158, 9, 158, 9, 158, 9, 158, 230, 202, 230, 202, 9, 158, 9
        DC8 150, 9, 158, 9, 150, 9, 158, 9, 150, 38, 195, 99, 232, 233, 149, 9
        DC8 150, 9, 150, 9, 150, 9, 150, 9, 150, 9, 150, 9, 150, 135, 187, 73
        DC8 157, 233, 149, 10, 150, 234, 149, 233, 149, 9, 150, 9, 150, 234
        DC8 149, 234, 149, 4, 225, 99, 232, 168, 172, 9, 150, 9, 158, 9, 158, 9
        DC8 150, 9, 150, 9, 158, 9, 158, 9, 150, 9, 150, 233, 149, 197, 209
        DC8 197, 209, 234, 141, 234, 141, 234, 141, 234, 141, 234, 141, 234
        DC8 141, 234, 141, 234, 141, 234, 141, 234, 141, 234, 141, 234, 141
        DC8 234, 141, 234, 141, 234, 141, 234, 141, 234, 141, 234, 141, 234
        DC8 141, 234, 141, 234, 141, 234, 141, 234, 149, 9, 150, 233, 149, 233
        DC8 149, 234, 149, 233, 149, 9, 150, 38, 195, 99, 232, 136, 164, 234
        DC8 141, 202, 133, 202, 133, 202, 133, 202, 133, 234, 133, 202, 133, 41
        DC8 149, 163, 224, 99, 232, 99, 232, 99, 232, 99, 232, 99, 232, 99, 232
        DC8 99, 232, 99, 232, 103, 179, 202, 133, 104, 156, 99, 232, 99, 232
        DC8 99, 232, 99, 232, 99, 232, 99, 232, 99, 232, 99, 232, 99, 232, 233
        DC8 156, 234, 141, 202, 133, 202, 125, 202, 125, 202, 125, 202, 125
        DC8 202, 125, 202, 125, 203, 125, 203, 125, 202, 125, 202, 125, 202
        DC8 125, 203, 125, 203, 125, 202, 125, 202, 125, 202, 125, 202, 125
        DC8 203, 125, 202, 133, 234, 133, 234, 141, 234, 141, 234, 141, 234
        DC8 141, 234, 141, 234, 133, 234, 133, 102, 190, 102, 190, 102, 190
        DC8 102, 198, 134, 198, 134, 198, 134, 198, 102, 198, 102, 198, 102
        DC8 190, 102, 190, 102, 190, 102, 190, 102, 190, 102, 190, 102, 190
        DC8 102, 190, 102, 190, 102, 190, 102, 198, 103, 190, 102, 198, 103
        DC8 190, 102, 190, 102, 190, 102, 190, 103, 190, 103, 190, 103, 190
        DC8 103, 190, 103, 190, 103, 190, 103, 190, 103, 190, 103, 190, 103
        DC8 190, 103, 190, 103, 190, 103, 190, 103, 190, 230, 204, 99, 232, 230
        DC8 196, 103, 190, 103, 190, 103, 190, 103, 190, 103, 182, 103, 190
        DC8 103, 190, 103, 182, 103, 182, 71, 182, 103, 190, 71, 182, 103, 182
        DC8 103, 182, 71, 182, 103, 182, 103, 182, 71, 182, 4, 225, 99, 232, 99
        DC8 232, 99, 232, 99, 232, 99, 232, 99, 232, 99, 232, 99, 232, 102, 196
        DC8 71, 182, 71, 182, 69, 211, 99, 232, 71, 182, 72, 182, 71, 182, 71
        DC8 182, 72, 182, 71, 182, 71, 174, 71, 182, 72, 182, 72, 182, 72, 174
        DC8 72, 182, 72, 182, 72, 182, 72, 182, 72, 174, 72, 174, 72, 174, 72
        DC8 174, 72, 174, 72, 174, 72, 174, 72, 174, 39, 181, 199, 188, 199
        DC8 188, 199, 188, 199, 188, 232, 181, 72, 174, 135, 181, 199, 188, 199
        DC8 188, 199, 188, 199, 188, 135, 181, 72, 174, 72, 174, 72, 174, 72
        DC8 174, 40, 174, 72, 174, 135, 181, 166, 195, 69, 203, 166, 203, 135
        DC8 181, 40, 174, 40, 174, 40, 166, 40, 166, 40, 174, 40, 166, 40, 166
        DC8 40, 166, 200, 173, 230, 187, 70, 203, 230, 187, 200, 173, 41, 166
        DC8 40, 166, 41, 166, 41, 166, 41, 166, 40, 166, 41, 166, 41, 166, 41
        DC8 166, 41, 166, 41, 158, 41, 166, 41, 166, 41, 166, 41, 158, 41, 166
        DC8 41, 158, 41, 158, 41, 166, 41, 158, 200, 165, 100, 217, 99, 232
        DC8 133, 202, 41, 166, 9, 158, 41, 158, 200, 165, 167, 180, 230, 202
        DC8 99, 232, 198, 202, 167, 180, 167, 180, 200, 165, 9, 158, 9, 158, 9
        DC8 158, 99, 232, 230, 202, 9, 158, 9, 158, 9, 158, 9, 166, 9, 158, 9
        DC8 158, 41, 166, 41, 166, 9, 158, 9, 158, 9, 158, 197, 217, 99, 232
        DC8 168, 172, 9, 150, 9, 150, 9, 150, 9, 150, 9, 150, 38, 195, 99, 232
        DC8 9, 150, 10, 158, 234, 149, 9, 150, 9, 150, 9, 150, 9, 150, 231, 179
        DC8 99, 232, 198, 194, 9, 150, 9, 150, 9, 150, 9, 150, 233, 149, 233
        DC8 149, 9, 150, 9, 150, 232, 172, 163, 232, 163, 232, 232, 172, 9, 158
        DC8 9, 150, 9, 158, 9, 158, 9, 158, 233, 149, 233, 149, 234, 141, 234
        DC8 141, 197, 209, 197, 209, 234, 141, 234, 141, 234, 141, 234, 141
        DC8 234, 141, 234, 141, 234, 141, 234, 141, 234, 141, 234, 141, 234
        DC8 141, 198, 194, 99, 232, 99, 232, 99, 232, 99, 232, 99, 232, 100
        DC8 217, 73, 157, 233, 149, 9, 150, 9, 150, 9, 150, 9, 150, 9, 150, 9
        DC8 150, 9, 150, 9, 150, 10, 150, 38, 187, 99, 232, 136, 164, 234, 133
        DC8 234, 141, 234, 141, 202, 133, 234, 133, 234, 133, 202, 133, 104
        DC8 156, 99, 232, 163, 224, 201, 148, 202, 133, 202, 133, 202, 133, 202
        DC8 133, 201, 148, 99, 232, 7, 187, 234, 133, 38, 187, 99, 232, 100
        DC8 217, 169, 149, 234, 141, 234, 141, 234, 141, 234, 141, 135, 179, 99
        DC8 232, 104, 156, 202, 125, 202, 133, 202, 125, 202, 133, 202, 125
        DC8 202, 125, 202, 125, 202, 125, 202, 125, 203, 125, 202, 125, 203
        DC8 125, 202, 125, 203, 125, 203, 125, 202, 125, 202, 125, 203, 125
        DC8 202, 133, 202, 133, 234, 141, 234, 141, 234, 133, 235, 133, 234
        DC8 133, 234, 141, 234, 141, 234, 141, 234, 133, 102, 198, 134, 198
        DC8 102, 190, 102, 198, 102, 190, 102, 198, 134, 198, 102, 190, 102
        DC8 198, 102, 198, 102, 198, 102, 190, 103, 190, 102, 190, 102, 190
        DC8 103, 198, 103, 190, 103, 190, 102, 190, 102, 190, 102, 190, 102
        DC8 190, 102, 190, 102, 190, 102, 190, 102, 190, 102, 190, 102, 190
        DC8 102, 190, 6, 190, 230, 204, 6, 190, 103, 190, 103, 190, 103, 190
        DC8 103, 190, 103, 190, 103, 190, 103, 190, 103, 182, 230, 196, 99, 232
        DC8 230, 196, 103, 190, 103, 190, 103, 190, 103, 190, 103, 190, 71, 182
        DC8 103, 190, 103, 190, 39, 197, 70, 197, 71, 182, 71, 182, 71, 182, 71
        DC8 182, 71, 182, 71, 182, 103, 182, 38, 189, 99, 232, 133, 218, 198
        DC8 196, 198, 196, 198, 196, 198, 196, 198, 196, 100, 225, 99, 232, 196
        DC8 217, 71, 182, 71, 182, 69, 211, 99, 232, 71, 182, 71, 182, 71, 182
        DC8 71, 182, 71, 182, 71, 182, 71, 182, 72, 182, 72, 182, 72, 182, 72
        DC8 182, 72, 182, 72, 182, 72, 182, 72, 182, 72, 182, 72, 174, 72, 174
        DC8 72, 174, 72, 174, 72, 174, 72, 174, 72, 174, 229, 210, 4, 225, 99
        DC8 232, 99, 232, 196, 217, 39, 189, 72, 174, 6, 196, 4, 225, 99, 232
        DC8 99, 232, 4, 225, 6, 196, 72, 174, 72, 174, 72, 174, 72, 174, 200
        DC8 173, 196, 217, 163, 232, 229, 202, 70, 203, 4, 225, 163, 232, 199
        DC8 188, 40, 166, 40, 166, 40, 166, 40, 166, 40, 166, 40, 166, 230, 187
        DC8 163, 232, 163, 232, 196, 217, 4, 225, 163, 232, 6, 188, 41, 166, 41
        DC8 166, 40, 166, 40, 166, 41, 166, 41, 166, 41, 166, 41, 166, 41, 166
        DC8 41, 166, 41, 166, 41, 166, 41, 166, 41, 166, 41, 158, 41, 158, 41
        DC8 166, 41, 158, 41, 158, 41, 158, 200, 165, 100, 217, 99, 232, 133
        DC8 210, 9, 158, 133, 210, 99, 232, 99, 232, 99, 232, 99, 232, 99, 232
        DC8 99, 232, 99, 232, 99, 232, 133, 210, 41, 158, 8, 173, 99, 232, 4
        DC8 225, 196, 217, 196, 217, 196, 217, 196, 217, 196, 217, 9, 158, 9
        DC8 158, 9, 158, 9, 158, 9, 150, 9, 158, 72, 165, 99, 232, 197, 217, 9
        DC8 150, 9, 150, 9, 150, 9, 150, 9, 150, 38, 195, 99, 232, 9, 158, 9
        DC8 150, 9, 150, 9, 150, 9, 150, 9, 150, 9, 150, 4, 225, 99, 232, 73
        DC8 157, 9, 150, 233, 149, 234, 149, 9, 150, 9, 150, 9, 150, 9, 158, 9
        DC8 158, 9, 158, 231, 187, 99, 232, 4, 225, 169, 157, 9, 158, 9, 158, 9
        DC8 150, 234, 141, 234, 149, 234, 141, 234, 141, 234, 141, 197, 209
        DC8 197, 209, 234, 149, 234, 141, 234, 141, 234, 141, 234, 141, 234
        DC8 141, 234, 141, 234, 141, 234, 141, 234, 141, 232, 156, 99, 232, 99
        DC8 232, 5, 202, 38, 187, 38, 187, 197, 209, 99, 232, 38, 195, 9, 150
        DC8 233, 149, 9, 150, 234, 149, 234, 149, 233, 149, 233, 149, 233, 141
        DC8 234, 141, 234, 133, 39, 187, 99, 232, 136, 164, 234, 141, 234, 133
        DC8 234, 133, 234, 133, 234, 141, 202, 133, 234, 133, 104, 156, 99, 232
        DC8 40, 164, 202, 133, 202, 133, 202, 133, 202, 133, 202, 133, 202, 133
        DC8 99, 232, 38, 187, 234, 141, 38, 187, 99, 232, 137, 149, 234, 141
        DC8 234, 141, 234, 141, 234, 141, 234, 141, 104, 156, 99, 232, 104, 156
        DC8 202, 133, 202, 133, 202, 133, 202, 133, 202, 133, 202, 125, 202
        DC8 125, 202, 125, 203, 125, 203, 125, 202, 125, 203, 125, 202, 125
        DC8 202, 125, 202, 125, 202, 125, 202, 125, 202, 133, 234, 141, 234
        DC8 141, 234, 141, 234, 141, 234, 141, 234, 133, 234, 133, 234, 141
        DC8 202, 133, 202, 133, 202, 125, 102, 198, 102, 190, 102, 198, 102
        DC8 190, 102, 198, 102, 190, 102, 190, 102, 198, 102, 198, 102, 198
        DC8 102, 198, 102, 198, 102, 190, 102, 190, 102, 190, 102, 190, 102
        DC8 190, 102, 190, 102, 190, 102, 190, 102, 190, 102, 190, 102, 190
        DC8 102, 190, 102, 190, 102, 190, 102, 190, 102, 190, 102, 190, 230
        DC8 204, 99, 232, 230, 196, 103, 190, 103, 190, 103, 190, 103, 190, 103
        DC8 190, 103, 190, 103, 190, 103, 190, 198, 196, 99, 232, 230, 196, 103
        DC8 190, 103, 190, 71, 182, 103, 190, 103, 190, 103, 190, 71, 182, 71
        DC8 182, 228, 225, 196, 217, 71, 182, 103, 190, 71, 182, 71, 182, 103
        DC8 182, 71, 182, 103, 182, 229, 210, 99, 232, 102, 196, 71, 182, 71
        DC8 182, 71, 182, 103, 182, 103, 182, 231, 181, 4, 225, 196, 217, 71
        DC8 182, 71, 182, 69, 211, 99, 232, 72, 182, 71, 182, 72, 182, 72, 182
        DC8 72, 174, 71, 174, 72, 182, 72, 182, 72, 174, 72, 174, 72, 174, 72
        DC8 174, 72, 174, 72, 182, 71, 174, 72, 174, 72, 174, 72, 174, 72, 182
        DC8 72, 174, 72, 174, 72, 174, 72, 174, 72, 174, 102, 196, 99, 232, 196
        DC8 217, 72, 174, 72, 174, 40, 174, 72, 174, 102, 196, 99, 232, 229
        DC8 210, 40, 174, 40, 174, 40, 174, 40, 174, 40, 166, 200, 173, 100
        DC8 225, 100, 225, 200, 173, 40, 166, 40, 166, 167, 180, 99, 232, 4
        DC8 225, 40, 166, 40, 166, 40, 166, 40, 166, 40, 166, 71, 188, 99, 232
        DC8 100, 225, 200, 173, 40, 166, 200, 173, 100, 225, 99, 232, 167, 180
        DC8 41, 166, 41, 166, 41, 166, 41, 166, 41, 166, 41, 158, 41, 166, 41
        DC8 166, 41, 166, 41, 158, 41, 166, 41, 166, 41, 158, 41, 158, 41, 158
        DC8 41, 158, 41, 166, 41, 166, 9, 158, 9, 158, 200, 165, 100, 217, 230
        DC8 202, 72, 165, 99, 232, 99, 232, 133, 210, 38, 195, 38, 195, 70, 195
        DC8 70, 195, 70, 203, 100, 217, 99, 232, 104, 173, 71, 180, 99, 232
        DC8 100, 217, 196, 217, 196, 217, 4, 225, 99, 232, 196, 217, 9, 158, 9
        DC8 158, 9, 150, 233, 149, 9, 158, 9, 150, 9, 158, 101, 202, 99, 232
        DC8 71, 180, 9, 158, 9, 150, 9, 150, 9, 150, 38, 195, 99, 232, 9, 150
        DC8 9, 150, 9, 150, 233, 149, 9, 150, 9, 150, 231, 179, 99, 232, 198
        DC8 194, 233, 149, 233, 149, 9, 150, 9, 158, 9, 158, 9, 158, 9, 158, 9
        DC8 158, 9, 150, 9, 150, 9, 158, 38, 195, 99, 232, 37, 210, 233, 149
        DC8 234, 141, 234, 141, 234, 149, 234, 149, 234, 149, 234, 149, 234
        DC8 141, 197, 209, 197, 209, 234, 141, 234, 141, 234, 141, 234, 141
        DC8 234, 141, 234, 141, 234, 141, 234, 141, 234, 141, 234, 141, 136
        DC8 164, 99, 232, 102, 202, 234, 141, 233, 141, 233, 149, 169, 157, 99
        DC8 232, 38, 195, 233, 149, 233, 149, 234, 149, 9, 150, 9, 150, 10, 150
        DC8 234, 141, 234, 133, 234, 133, 234, 133, 38, 187, 99, 232, 136, 164
        DC8 234, 133, 202, 133, 234, 141, 234, 133, 234, 133, 234, 133, 202
        DC8 133, 136, 164, 99, 232, 137, 164, 202, 133, 202, 133, 202, 133, 202
        DC8 133, 234, 133, 234, 141, 99, 232, 38, 187, 234, 141, 38, 187, 99
        DC8 232, 234, 141, 234, 141, 234, 141, 234, 141, 202, 133, 202, 133
        DC8 104, 156, 99, 232, 104, 156, 202, 125, 202, 125, 202, 125, 202, 125
        DC8 202, 125, 202, 125, 202, 125, 202, 125, 202, 125, 202, 125, 202
        DC8 125, 203, 125, 202, 125, 170, 125, 202, 125, 202, 133, 234, 141
        DC8 234, 141, 234, 141, 234, 141, 234, 141, 234, 133, 234, 133, 234
        DC8 141, 234, 141, 202, 133, 202, 125, 171, 125, 171, 125, 102, 198
        DC8 102, 198, 102, 198, 102, 190, 103, 190, 102, 190, 102, 190, 102
        DC8 190, 134, 198, 102, 198, 102, 198, 102, 198, 102, 198, 102, 190
        DC8 102, 190, 102, 190, 102, 190, 103, 190, 102, 190, 102, 190, 102
        DC8 190, 103, 190, 103, 190, 103, 190, 103, 190, 102, 190, 102, 190
        DC8 102, 190, 102, 190, 229, 204, 99, 232, 230, 196, 103, 190, 103, 190
        DC8 103, 190, 103, 190, 103, 190, 103, 190, 103, 190, 103, 190, 230
        DC8 204, 99, 232, 198, 196, 103, 190, 103, 190, 103, 190, 71, 182, 71
        DC8 182, 71, 182, 103, 190, 71, 182, 196, 217, 196, 225, 103, 182, 71
        DC8 182, 71, 182, 71, 182, 71, 182, 103, 182, 103, 182, 4, 225, 163
        DC8 232, 71, 182, 71, 182, 71, 182, 103, 182, 71, 182, 71, 182, 71, 182
        DC8 99, 232, 196, 217, 72, 182, 71, 182, 69, 211, 99, 232, 71, 182, 71
        DC8 182, 72, 182, 72, 182, 72, 182, 72, 174, 72, 182, 72, 182, 72, 182
        DC8 72, 174, 72, 174, 40, 174, 72, 174, 72, 174, 72, 174, 72, 174, 72
        DC8 174, 72, 174, 72, 174, 72, 174, 40, 174, 72, 174, 72, 174, 72, 174
        DC8 199, 188, 99, 232, 196, 217, 40, 174, 40, 174, 40, 174, 200, 173
        DC8 100, 225, 133, 210, 40, 166, 40, 166, 40, 166, 40, 174, 40, 166, 40
        DC8 166, 37, 210, 163, 232, 200, 173, 40, 166, 40, 166, 40, 166, 167
        DC8 180, 99, 232, 99, 232, 40, 166, 40, 166, 40, 166, 40, 166, 40, 166
        DC8 4, 225, 99, 232, 167, 180, 40, 166, 40, 166, 41, 166, 104, 173, 99
        DC8 232, 4, 225, 40, 166, 41, 166, 41, 166, 41, 166, 41, 158, 41, 166
        DC8 41, 166, 41, 166, 41, 166, 41, 166, 41, 158, 41, 166, 9, 158, 41
        DC8 166, 41, 166, 9, 158, 9, 158, 41, 158, 9, 158, 9, 158, 9, 158, 9
        DC8 158, 9, 158, 167, 180, 99, 232, 134, 195, 41, 166, 41, 166, 41, 166
        DC8 41, 166, 41, 158, 41, 166, 70, 195, 99, 232, 104, 173, 38, 195, 99
        DC8 232, 200, 165, 9, 158, 9, 158, 38, 195, 99, 232, 9, 158, 9, 158, 9
        DC8 158, 9, 158, 9, 158, 9, 158, 9, 150, 9, 150, 72, 165, 99, 232, 100
        DC8 217, 10, 150, 9, 158, 9, 150, 9, 150, 38, 195, 99, 232, 233, 149, 9
        DC8 150, 9, 150, 9, 150, 9, 150, 169, 157, 163, 232, 163, 232, 169, 157
        DC8 9, 150, 9, 158, 9, 158, 9, 158, 9, 158, 9, 158, 9, 158, 9, 158, 9
        DC8 158, 9, 150, 9, 158, 233, 149, 101, 202, 5, 210, 233, 149, 234, 141
        DC8 10, 142, 234, 141, 234, 141, 234, 141, 233, 149, 234, 141, 197, 209
        DC8 197, 209, 234, 141, 234, 141, 234, 141, 234, 141, 234, 141, 234
        DC8 149, 234, 141, 234, 141, 234, 141, 234, 141, 136, 164, 99, 232, 136
        DC8 164, 9, 150, 9, 150, 9, 150, 233, 149, 99, 232, 38, 195, 99, 232
        DC8 99, 232, 99, 232, 99, 232, 99, 232, 99, 232, 99, 232, 99, 232, 99
        DC8 232, 99, 232, 99, 232, 99, 232, 99, 232, 99, 232, 99, 232, 99, 232
        DC8 202, 133, 202, 133, 234, 141, 202, 133, 136, 164, 99, 232, 104, 156
        DC8 202, 133, 202, 133, 234, 133, 234, 141, 233, 149, 234, 141, 99, 232
        DC8 38, 187, 234, 141, 38, 187, 99, 232, 234, 141, 234, 141, 202, 133
        DC8 202, 133, 202, 133, 202, 133, 104, 156, 99, 232, 104, 156, 202, 133
        DC8 202, 133, 202, 125, 202, 125, 202, 125, 202, 125, 202, 133, 202
        DC8 125, 203, 133, 202, 125, 202, 125, 202, 125, 202, 125, 202, 133
        DC8 234, 141, 234, 141, 234, 133, 234, 141, 234, 133, 234, 141, 234
        DC8 133, 234, 133, 234, 141, 202, 133, 202, 133, 171, 125, 171, 125
        DC8 203, 125, 203, 125, 102, 198, 102, 198, 102, 190, 102, 190, 102
        DC8 190, 102, 198, 102, 190, 102, 190, 102, 190, 102, 190, 102, 190
        DC8 102, 198, 102, 198, 102, 190, 102, 198, 102, 190, 102, 190, 102
        DC8 190, 102, 190, 102, 190, 102, 190, 103, 190, 103, 190, 103, 190
        DC8 103, 190, 103, 190, 103, 190, 103, 190, 102, 190, 230, 204, 99, 232
        DC8 230, 196, 103, 190, 103, 190, 103, 190, 103, 190, 103, 190, 103
        DC8 190, 103, 190, 103, 190, 230, 204, 99, 232, 230, 196, 103, 182, 103
        DC8 182, 103, 190, 71, 182, 103, 190, 103, 190, 71, 182, 71, 182, 196
        DC8 225, 196, 217, 103, 182, 71, 182, 103, 190, 71, 182, 71, 182, 71
        DC8 182, 38, 204, 99, 232, 229, 210, 71, 182, 71, 182, 71, 182, 71, 182
        DC8 71, 182, 71, 182, 71, 182, 99, 232, 133, 210, 71, 182, 72, 182, 69
        DC8 211, 99, 232, 71, 182, 72, 174, 72, 182, 72, 182, 72, 174, 72, 174
        DC8 72, 182, 72, 174, 72, 182, 72, 174, 72, 174, 72, 174, 72, 174, 72
        DC8 174, 72, 174, 72, 174, 72, 174, 72, 174, 72, 174, 72, 174, 72, 174
        DC8 72, 174, 72, 174, 40, 174, 199, 188, 99, 232, 196, 217, 40, 174, 40
        DC8 174, 40, 174, 229, 210, 4, 225, 200, 173, 40, 166, 72, 174, 40, 174
        DC8 40, 166, 40, 166, 7, 181, 99, 232, 229, 202, 40, 174, 40, 166, 40
        DC8 166, 40, 166, 40, 166, 230, 195, 167, 180, 40, 166, 40, 166, 40
        DC8 166, 40, 166, 6, 196, 99, 232, 100, 217, 40, 166, 40, 166, 40, 166
        DC8 40, 166, 40, 166, 196, 217, 99, 232, 230, 187, 41, 166, 41, 166, 41
        DC8 166, 41, 158, 41, 158, 41, 166, 41, 166, 41, 166, 41, 166, 41, 166
        DC8 41, 166, 41, 166, 9, 158, 40, 166, 9, 158, 41, 166, 41, 158, 41
        DC8 158, 9, 158, 41, 166, 41, 166, 41, 166, 167, 180, 99, 232, 100, 217
        DC8 196, 217, 196, 217, 196, 217, 196, 217, 196, 217, 196, 217, 4, 225
        DC8 99, 232, 9, 158, 196, 217, 4, 225, 9, 158, 9, 158, 9, 158, 38, 195
        DC8 99, 232, 9, 150, 9, 158, 9, 158, 9, 158, 9, 150, 9, 158, 9, 158, 9
        DC8 158, 9, 150, 101, 202, 99, 232, 168, 172, 9, 158, 9, 150, 9, 150
        DC8 38, 195, 99, 232, 9, 150, 9, 150, 233, 149, 9, 150, 9, 150, 37, 210
        DC8 99, 232, 134, 187, 9, 158, 9, 158, 9, 158, 9, 158, 9, 158, 9, 150
        DC8 9, 158, 9, 158, 9, 158, 9, 150, 233, 149, 234, 149, 233, 149, 234
        DC8 149, 233, 149, 234, 149, 234, 149, 234, 141, 10, 142, 234, 141, 234
        DC8 141, 234, 149, 234, 141, 197, 209, 197, 209, 234, 141, 234, 141
        DC8 234, 141, 234, 141, 234, 141, 234, 141, 234, 141, 234, 141, 234
        DC8 141, 234, 141, 136, 164, 99, 232, 136, 172, 9, 150, 233, 149, 9
        DC8 150, 9, 150, 99, 232, 38, 195, 38, 195, 38, 187, 38, 187, 38, 187
        DC8 39, 187, 38, 187, 38, 187, 38, 187, 38, 187, 38, 187, 165, 209, 99
        DC8 232, 102, 194, 39, 187, 38, 187, 38, 187, 234, 133, 202, 133, 234
        DC8 133, 234, 141, 104, 164, 99, 232, 165, 209, 38, 187, 38, 187, 38
        DC8 187, 38, 187, 38, 187, 198, 194, 99, 232, 38, 187, 234, 141, 38
        DC8 187, 99, 232, 5, 202, 7, 187, 7, 179, 7, 179, 7, 179, 7, 179, 5
        DC8 202, 99, 232, 104, 156, 202, 133, 202, 125, 202, 125, 202, 133, 202
        DC8 125, 202, 125, 202, 125, 202, 125, 202, 125, 202, 125, 202, 125
        DC8 202, 133, 234, 141, 234, 141, 234, 141, 234, 141, 234, 141, 234
        DC8 141, 234, 133, 234, 133, 234, 133, 234, 133, 202, 133, 203, 125
        DC8 202, 125, 171, 125, 170, 125, 203, 125, 203, 125, 134, 198, 134
        DC8 198, 134, 198, 102, 198, 102, 190, 102, 198, 102, 190, 102, 190
        DC8 102, 190, 102, 190, 103, 190, 102, 190, 102, 190, 102, 198, 102
        DC8 190, 102, 198, 102, 198, 102, 190, 102, 190, 102, 190, 102, 190
        DC8 103, 190, 103, 190, 103, 190, 103, 190, 103, 190, 103, 190, 103
        DC8 190, 103, 190, 230, 196, 99, 232, 230, 204, 103, 190, 103, 190, 103
        DC8 190, 103, 190, 103, 190, 103, 190, 103, 190, 103, 190, 230, 196, 99
        DC8 232, 230, 204, 103, 190, 103, 190, 71, 182, 103, 182, 71, 182, 103
        DC8 182, 71, 182, 103, 190, 196, 217, 196, 217, 71, 182, 71, 182, 71
        DC8 182, 71, 182, 71, 182, 71, 182, 196, 217, 99, 232, 135, 189, 71
        DC8 182, 71, 182, 71, 182, 71, 182, 103, 182, 71, 182, 231, 181, 99
        DC8 232, 69, 211, 71, 182, 71, 182, 69, 211, 99, 232, 71, 182, 71, 182
        DC8 72, 182, 72, 182, 72, 182, 72, 174, 72, 174, 72, 182, 72, 182, 72
        DC8 174, 72, 174, 72, 174, 72, 174, 72, 174, 72, 174, 72, 174, 72, 174
        DC8 72, 174, 72, 174, 72, 174, 72, 174, 72, 174, 72, 174, 72, 174, 199
        DC8 188, 99, 232, 196, 217, 40, 174, 40, 174, 199, 188, 99, 232, 39
        DC8 181, 72, 174, 40, 166, 40, 174, 40, 174, 40, 166, 40, 166, 229, 202
        DC8 99, 232, 71, 188, 40, 166, 40, 166, 40, 166, 40, 166, 40, 166, 40
        DC8 166, 40, 166, 40, 166, 40, 166, 40, 166, 40, 166, 196, 217, 99, 232
        DC8 166, 195, 40, 166, 40, 166, 40, 166, 40, 166, 40, 166, 70, 203, 99
        DC8 232, 37, 210, 41, 166, 41, 166, 41, 166, 41, 166, 41, 166, 41, 166
        DC8 41, 158, 9, 158, 41, 158, 41, 166, 41, 166, 41, 158, 41, 166, 41
        DC8 166, 40, 166, 40, 166, 40, 166, 40, 166, 41, 166, 41, 166, 41, 166
        DC8 40, 166, 167, 180, 99, 232, 99, 232, 99, 232, 99, 232, 99, 232, 99
        DC8 232, 99, 232, 99, 232, 99, 232, 99, 232, 9, 158, 99, 232, 100, 217
        DC8 9, 158, 9, 158, 9, 158, 38, 195, 99, 232, 9, 158, 9, 158, 9, 158, 9
        DC8 158, 9, 158, 9, 150, 9, 158, 9, 158, 9, 150, 72, 165, 99, 232, 37
        DC8 210, 9, 150, 9, 150, 9, 150, 38, 195, 99, 232, 9, 150, 9, 150, 9
        DC8 150, 9, 150, 71, 180, 99, 232, 197, 217, 9, 158, 9, 158, 9, 158, 9
        DC8 158, 9, 158, 9, 158, 9, 158, 9, 158, 198, 194, 197, 209, 197, 209
        DC8 197, 209, 197, 209, 40, 172, 234, 149, 234, 149, 10, 150, 234, 141
        DC8 233, 149, 234, 141, 234, 141, 234, 149, 10, 142, 234, 141, 197, 209
        DC8 197, 209, 234, 141, 234, 141, 234, 141, 234, 141, 234, 141, 234
        DC8 141, 233, 141, 233, 141, 233, 149, 9, 150, 136, 172, 99, 232, 136
        DC8 172, 9, 150, 9, 150, 233, 149, 9, 150, 99, 232, 38, 187, 234, 141
        DC8 234, 141, 234, 141, 234, 141, 234, 141, 234, 141, 234, 133, 234
        DC8 133, 234, 133, 234, 141, 38, 187, 99, 232, 136, 164, 202, 133, 202
        DC8 133, 202, 133, 234, 133, 234, 133, 234, 133, 234, 133, 138, 141
        DC8 100, 217, 99, 232, 99, 232, 99, 232, 99, 232, 99, 232, 99, 232, 99
        DC8 232, 163, 224, 135, 187, 73, 157, 41, 149, 163, 224, 99, 232, 99
        DC8 232, 99, 232, 99, 232, 99, 232, 99, 232, 99, 232, 163, 224, 41, 141
        DC8 202, 125, 202, 125, 202, 125, 202, 125, 203, 133, 202, 125, 202
        DC8 125, 202, 125, 203, 125, 202, 133, 234, 133, 234, 141, 234, 141
        DC8 234, 141, 234, 141, 234, 141, 234, 141, 234, 141, 234, 141, 234
        DC8 141, 202, 133, 202, 125, 203, 125, 203, 125, 203, 125, 203, 125
        DC8 203, 125, 203, 125, 203, 125, 102, 190, 102, 198, 134, 198, 134
        DC8 198, 134, 198, 102, 190, 102, 190, 102, 190, 102, 190, 102, 190
        DC8 102, 190, 102, 190, 102, 190, 102, 190, 102, 190, 102, 190, 102
        DC8 198, 134, 198, 102, 190, 102, 190, 102, 190, 102, 190, 103, 190
        DC8 103, 190, 103, 190, 103, 190, 103, 190, 103, 190, 103, 190, 230
        DC8 204, 99, 232, 230, 196, 103, 190, 103, 190, 103, 190, 103, 190, 103
        DC8 190, 103, 190, 103, 190, 103, 190, 230, 196, 99, 232, 230, 196, 103
        DC8 190, 103, 190, 103, 190, 103, 190, 71, 182, 103, 182, 103, 190, 103
        DC8 182, 196, 217, 196, 217, 71, 182, 71, 182, 71, 182, 71, 182, 71
        DC8 182, 102, 196, 99, 232, 133, 218, 71, 182, 72, 182, 103, 182, 71
        DC8 182, 71, 182, 71, 182, 71, 182, 198, 196, 99, 232, 166, 203, 71
        DC8 182, 71, 182, 69, 211, 99, 232, 231, 181, 71, 182, 72, 182, 72, 182
        DC8 72, 174, 72, 182, 72, 182, 72, 182, 72, 182, 72, 174, 72, 174, 72
        DC8 174, 72, 174, 72, 174, 72, 174, 72, 174, 72, 174, 72, 174, 72, 174
        DC8 72, 174, 72, 174, 72, 174, 72, 174, 72, 174, 199, 188, 99, 232, 196
        DC8 217, 40, 174, 200, 173, 163, 232, 70, 203, 72, 174, 40, 174, 72
        DC8 166, 40, 174, 40, 174, 40, 166, 40, 166, 4, 225, 99, 232, 104, 181
        DC8 40, 174, 40, 166, 40, 166, 40, 166, 40, 166, 40, 166, 40, 166, 40
        DC8 166, 40, 166, 41, 166, 40, 166, 99, 232, 99, 232, 167, 180, 40, 166
        DC8 41, 166, 41, 166, 40, 166, 41, 166, 167, 180, 99, 232, 163, 232, 40
        DC8 166, 41, 166, 41, 166, 41, 166, 9, 158, 41, 166, 41, 166, 41, 166
        DC8 41, 166, 40, 166, 40, 166, 40, 166, 40, 166, 40, 166, 40, 166, 40
        DC8 166, 104, 173, 196, 217, 230, 187, 40, 166, 41, 166, 41, 166, 167
        DC8 180, 99, 232, 231, 187, 41, 166, 41, 166, 9, 158, 9, 158, 9, 158, 9
        DC8 158, 38, 195, 99, 232, 8, 173, 99, 232, 99, 232, 9, 158, 9, 158, 9
        DC8 158, 38, 195, 99, 232, 9, 158, 9, 150, 9, 150, 9, 158, 9, 158, 9
        DC8 150, 9, 150, 9, 158, 9, 158, 9, 158, 37, 210, 37, 210, 9, 150, 10
        DC8 158, 9, 150, 38, 195, 99, 232, 9, 150, 9, 158, 9, 158, 9, 158, 163
        DC8 232, 163, 232, 104, 165, 9, 158, 9, 158, 9, 158, 9, 158, 9, 158, 9
        DC8 150, 233, 149, 9, 150, 198, 194, 197, 209, 197, 209, 4, 225, 99
        DC8 232, 99, 232, 234, 149, 234, 141, 234, 149, 234, 149, 234, 149, 234
        DC8 141, 234, 141, 234, 149, 234, 141, 234, 141, 197, 209, 197, 209
        DC8 234, 141, 234, 141, 234, 141, 234, 141, 234, 141, 234, 149, 9, 150
        DC8 9, 150, 9, 150, 9, 150, 136, 172, 99, 232, 136, 172, 234, 149, 234
        DC8 149, 233, 149, 234, 149, 99, 232, 38, 187, 234, 141, 234, 141, 234
        DC8 141, 234, 141, 234, 141, 234, 141, 234, 141, 234, 141, 234, 141
        DC8 234, 141, 39, 187, 99, 232, 136, 164, 202, 133, 234, 133, 234, 133
        DC8 202, 133, 202, 133, 202, 133, 234, 141, 234, 141, 234, 149, 232
        DC8 164, 136, 164, 136, 164, 136, 164, 136, 164, 136, 164, 136, 164, 73
        DC8 157, 163, 224, 4, 225, 202, 133, 202, 133, 104, 156, 104, 156, 8
        DC8 164, 4, 225, 8, 164, 104, 156, 104, 156, 202, 133, 202, 133, 202
        DC8 133, 202, 125, 202, 125, 202, 125, 203, 125, 202, 125, 202, 125
        DC8 202, 125, 234, 133, 234, 141, 234, 141, 234, 141, 234, 141, 234
        DC8 141, 234, 141, 234, 141, 234, 133, 234, 141, 234, 133, 202, 133
        DC8 203, 125, 171, 125, 202, 125, 170, 125, 203, 125, 203, 125, 203
        DC8 125, 203, 125, 203, 125, 102, 190, 102, 190, 102, 190, 102, 190
        DC8 134, 198, 134, 198, 134, 198, 102, 190, 102, 190, 102, 190, 103
        DC8 190, 102, 198, 102, 190, 102, 190, 103, 190, 102, 190, 102, 190
        DC8 102, 190, 102, 190, 102, 190, 102, 198, 102, 190, 102, 190, 102
        DC8 190, 103, 190, 103, 190, 103, 190, 103, 190, 103, 190, 230, 196, 99
        DC8 232, 230, 196, 103, 190, 103, 190, 103, 190, 103, 190, 103, 190
        DC8 103, 190, 103, 190, 103, 190, 230, 204, 99, 232, 230, 196, 103, 190
        DC8 103, 190, 103, 190, 103, 182, 103, 190, 103, 190, 103, 190, 71, 182
        DC8 196, 217, 196, 217, 71, 182, 103, 182, 103, 182, 71, 182, 71, 182
        DC8 4, 225, 99, 232, 38, 189, 165, 203, 71, 182, 71, 182, 103, 182, 71
        DC8 182, 71, 182, 71, 182, 166, 203, 99, 232, 198, 196, 72, 182, 71
        DC8 182, 69, 203, 99, 232, 100, 225, 231, 181, 72, 182, 72, 182, 72
        DC8 182, 72, 174, 72, 182, 72, 182, 72, 182, 72, 174, 72, 174, 72, 182
        DC8 72, 174, 40, 174, 72, 174, 72, 174, 72, 174, 72, 174, 72, 174, 72
        DC8 174, 72, 174, 72, 174, 72, 174, 72, 174, 199, 188, 99, 232, 196
        DC8 217, 72, 174, 37, 218, 4, 225, 72, 174, 72, 174, 40, 174, 40, 166
        DC8 40, 166, 40, 174, 72, 166, 40, 166, 99, 232, 99, 232, 40, 166, 40
        DC8 174, 200, 173, 230, 195, 70, 203, 6, 196, 200, 173, 40, 166, 40
        DC8 166, 40, 166, 40, 166, 7, 181, 99, 232, 99, 232, 40, 166, 40, 166
        DC8 41, 166, 40, 166, 40, 166, 40, 166, 7, 181, 99, 232, 99, 232, 40
        DC8 166, 40, 166, 40, 166, 40, 166, 41, 166, 40, 166, 40, 166, 40, 166
        DC8 41, 166, 40, 166, 40, 166, 40, 166, 40, 166, 40, 166, 40, 166, 40
        DC8 166, 7, 181, 163, 232, 99, 232, 230, 187, 41, 166, 41, 158, 167
        DC8 180, 99, 232, 37, 210, 167, 180, 168, 180, 167, 180, 167, 180, 167
        DC8 180, 167, 180, 133, 202, 99, 232, 197, 217, 99, 232, 99, 232, 8
        DC8 173, 9, 158, 9, 158, 133, 202, 99, 232, 9, 150, 9, 158, 9, 150, 9
        DC8 158, 9, 158, 9, 150, 9, 158, 9, 150, 9, 158, 9, 158, 9, 150, 9, 150
        DC8 9, 150, 10, 158, 9, 150, 38, 195, 99, 232, 9, 158, 9, 158, 9, 158
        DC8 9, 158, 72, 165, 8, 173, 9, 158, 9, 158, 9, 158, 9, 150, 9, 150, 9
        DC8 150, 9, 150, 233, 149, 9, 150, 9, 150, 234, 149, 234, 149, 137, 149
        DC8 100, 217, 99, 232, 234, 141, 234, 149, 73, 157, 136, 164, 136, 164
        DC8 136, 164, 136, 164, 136, 164, 136, 164, 136, 164, 100, 217, 100
        DC8 217, 136, 164, 136, 164, 136, 164, 136, 172, 136, 172, 136, 172
        DC8 232, 164, 9, 150, 9, 150, 9, 150, 168, 172, 99, 232, 136, 172, 233
        DC8 149, 234, 141, 234, 141, 234, 141, 99, 232, 38, 187, 234, 141, 234
        DC8 141, 137, 149, 234, 141, 234, 141, 234, 141, 234, 141, 234, 133
        DC8 234, 141, 234, 141, 38, 187, 99, 232, 136, 164, 234, 133, 202, 133
        DC8 202, 133, 234, 133, 234, 141, 234, 141, 234, 149, 234, 149, 234
        DC8 141, 234, 141, 234, 141, 234, 141, 234, 141, 234, 141, 234, 141
        DC8 234, 141, 100, 217, 99, 232, 104, 156, 202, 133, 202, 133, 202, 133
        DC8 202, 133, 8, 164, 99, 232, 163, 224, 201, 148, 202, 125, 202, 125
        DC8 202, 125, 202, 125, 202, 125, 202, 125, 202, 125, 202, 125, 202
        DC8 125, 234, 133, 234, 141, 234, 141, 234, 141, 234, 141, 234, 141
        DC8 234, 141, 234, 133, 234, 141, 234, 141, 234, 141, 202, 133, 202
        DC8 125, 170, 125, 202, 125, 202, 125, 203, 125, 203, 125, 171, 125
        DC8 202, 125, 203, 125, 203, 125, 171, 125, 102, 190, 102, 190, 102
        DC8 190, 102, 190, 102, 190, 102, 198, 134, 198, 102, 198, 102, 190
        DC8 102, 190, 102, 190, 102, 190, 102, 190, 103, 190, 102, 190, 102
        DC8 190, 102, 190, 102, 190, 102, 190, 102, 190, 102, 190, 102, 190
        DC8 102, 190, 103, 190, 102, 190, 102, 190, 103, 190, 103, 190, 103
        DC8 190, 230, 196, 99, 232, 230, 196, 103, 190, 103, 190, 103, 182, 103
        DC8 182, 103, 190, 103, 190, 103, 190, 103, 190, 230, 196, 99, 232, 230
        DC8 196, 103, 190, 103, 190, 103, 190, 103, 190, 103, 190, 103, 190
        DC8 103, 190, 71, 182, 196, 225, 196, 225, 71, 182, 71, 182, 71, 182
        DC8 71, 182, 69, 211, 99, 232, 229, 210, 133, 218, 99, 232, 100, 225
        DC8 135, 189, 71, 182, 71, 182, 71, 182, 71, 182, 133, 210, 99, 232
        DC8 231, 181, 71, 182, 71, 182, 69, 211, 99, 232, 99, 232, 100, 225
        DC8 231, 181, 72, 182, 72, 182, 72, 182, 72, 182, 72, 182, 72, 174, 72
        DC8 174, 72, 174, 72, 174, 72, 174, 72, 174, 72, 174, 72, 174, 72, 174
        DC8 72, 174, 72, 174, 72, 174, 72, 174, 72, 174, 72, 174, 72, 174, 199
        DC8 188, 99, 232, 196, 217, 166, 195, 99, 232, 163, 232, 232, 173, 72
        DC8 174, 40, 174, 40, 166, 40, 174, 72, 166, 40, 166, 167, 188, 99, 232
        DC8 99, 232, 40, 166, 196, 217, 99, 232, 99, 232, 99, 232, 99, 232, 163
        DC8 232, 71, 188, 40, 166, 40, 166, 40, 166, 167, 180, 99, 232, 99, 232
        DC8 40, 166, 40, 166, 40, 166, 40, 166, 40, 166, 40, 166, 40, 166, 99
        DC8 232, 99, 232, 7, 181, 40, 166, 40, 166, 40, 166, 40, 166, 41, 166
        DC8 40, 166, 40, 166, 40, 166, 40, 166, 40, 166, 41, 166, 40, 166, 40
        DC8 166, 40, 166, 40, 166, 41, 166, 8, 173, 163, 232, 99, 232, 133, 202
        DC8 9, 158, 9, 158, 163, 232, 99, 232, 99, 232, 99, 232, 99, 232, 99
        DC8 232, 99, 232, 99, 232, 99, 232, 163, 232, 100, 217, 99, 232, 99
        DC8 232, 71, 180, 9, 158, 9, 158, 197, 217, 100, 217, 9, 158, 9, 158, 9
        DC8 158, 9, 158, 136, 172, 38, 195, 38, 195, 38, 195, 38, 195, 38, 195
        DC8 38, 195, 38, 195, 38, 195, 38, 195, 38, 195, 196, 217, 99, 232, 38
        DC8 195, 38, 195, 38, 195, 38, 195, 38, 195, 38, 195, 38, 195, 38, 195
        DC8 38, 195, 38, 195, 38, 195, 136, 172, 233, 149, 233, 149, 9, 150, 9
        DC8 150, 9, 150, 234, 149, 234, 149, 38, 187, 99, 232, 234, 149, 234
        DC8 149, 38, 187, 99, 232, 99, 232, 99, 232, 99, 232, 99, 232, 99, 232
        DC8 99, 232, 99, 232, 99, 232, 99, 232, 99, 232, 99, 232, 99, 232, 99
        DC8 232, 99, 232, 197, 209, 9, 150, 9, 150, 9, 150, 136, 172, 99, 232
        DC8 136, 164, 234, 141, 234, 141, 234, 141, 234, 141, 99, 232, 38, 187
        DC8 234, 141, 137, 149, 163, 224, 199, 171, 234, 141, 234, 141, 234
        DC8 141, 235, 133, 234, 141, 234, 133, 39, 187, 99, 232, 136, 164, 202
        DC8 133, 234, 141, 234, 141, 234, 141, 234, 141, 234, 149, 231, 179, 38
        DC8 187, 38, 187, 38, 187, 38, 187, 38, 187, 38, 187, 38, 187, 38, 187
        DC8 5, 202, 99, 232, 100, 217, 7, 187, 7, 179, 7, 187, 7, 179, 7, 179
        DC8 7, 179, 165, 209, 99, 232, 163, 224, 7, 179, 7, 179, 7, 179, 41
        DC8 141, 202, 125, 170, 125, 202, 125, 202, 133, 234, 141, 234, 141
        DC8 234, 141, 234, 141, 234, 141, 234, 141, 234, 141, 234, 141, 234
        DC8 141, 234, 141, 202, 133, 202, 125, 202, 125, 202, 125, 202, 125
        DC8 202, 125, 171, 125, 203, 125, 202, 125, 202, 125, 171, 125, 203
        DC8 125, 203, 125, 203, 125, 102, 190, 102, 190, 102, 198, 102, 190
        DC8 102, 190, 103, 190, 102, 190, 102, 190, 102, 198, 102, 198, 102
        DC8 198, 102, 190, 102, 190, 102, 190, 102, 190, 102, 190, 102, 190
        DC8 102, 190, 103, 190, 103, 190, 103, 190, 102, 190, 102, 190, 102
        DC8 190, 102, 190, 102, 190, 102, 190, 102, 190, 102, 190, 230, 204, 99
        DC8 232, 230, 196, 103, 190, 103, 190, 103, 190, 103, 190, 71, 182, 103
        DC8 190, 103, 182, 103, 190, 198, 196, 99, 232, 230, 196, 103, 190, 103
        DC8 190, 103, 190, 71, 182, 103, 182, 103, 182, 103, 190, 103, 190, 196
        DC8 217, 196, 217, 103, 190, 71, 182, 71, 182, 38, 197, 99, 232, 163
        DC8 232, 231, 189, 231, 189, 133, 210, 99, 232, 163, 232, 6, 204, 71
        DC8 182, 71, 182, 71, 182, 4, 225, 100, 225, 72, 182, 71, 182, 71, 182
        DC8 69, 211, 99, 232, 6, 204, 99, 232, 100, 225, 231, 181, 72, 182, 72
        DC8 174, 72, 174, 72, 182, 72, 174, 72, 182, 72, 174, 72, 174, 72, 174
        DC8 71, 182, 72, 174, 72, 174, 72, 174, 72, 174, 72, 174, 72, 174, 72
        DC8 174, 72, 174, 72, 174, 72, 174, 199, 188, 99, 232, 4, 225, 163, 232
        DC8 163, 232, 99, 232, 166, 195, 40, 174, 40, 174, 40, 174, 40, 174, 40
        DC8 166, 40, 166, 167, 188, 99, 232, 99, 232, 133, 210, 100, 225, 6
        DC8 196, 200, 173, 167, 180, 196, 217, 99, 232, 163, 232, 104, 173, 40
        DC8 166, 40, 166, 167, 188, 99, 232, 99, 232, 40, 166, 40, 166, 40, 166
        DC8 40, 166, 40, 166, 40, 166, 40, 166, 99, 232, 99, 232, 167, 180, 40
        DC8 166, 41, 166, 40, 166, 40, 166, 40, 166, 40, 166, 40, 166, 40, 166
        DC8 40, 166, 40, 166, 41, 166, 41, 166, 41, 166, 40, 158, 41, 158, 41
        DC8 158, 9, 158, 8, 173, 163, 232, 99, 232, 71, 180, 9, 158, 104, 165
        DC8 134, 195, 38, 195, 100, 217, 4, 225, 70, 195, 38, 195, 38, 195, 134
        DC8 187, 72, 165, 99, 232, 133, 202, 99, 232, 38, 195, 9, 158, 9, 158
        DC8 163, 232, 197, 217, 9, 158, 9, 158, 9, 158, 9, 158, 38, 195, 99
        DC8 232, 99, 232, 99, 232, 99, 232, 99, 232, 99, 232, 99, 232, 99, 232
        DC8 99, 232, 99, 232, 99, 232, 99, 232, 99, 232, 99, 232, 99, 232, 99
        DC8 232, 99, 232, 99, 232, 99, 232, 99, 232, 99, 232, 99, 232, 99, 232
        DC8 38, 187, 234, 149, 233, 149, 233, 149, 9, 150, 233, 149, 9, 150, 9
        DC8 150, 38, 187, 99, 232, 234, 141, 234, 149, 136, 164, 38, 187, 38
        DC8 187, 38, 187, 39, 187, 39, 187, 38, 187, 38, 187, 4, 225, 4, 225
        DC8 38, 195, 38, 195, 38, 195, 38, 195, 38, 195, 38, 195, 231, 179, 9
        DC8 150, 233, 149, 233, 149, 136, 164, 99, 232, 136, 164, 234, 141, 234
        DC8 141, 234, 141, 234, 141, 99, 232, 38, 187, 234, 141, 41, 149, 163
        DC8 224, 99, 232, 199, 171, 234, 133, 234, 141, 234, 133, 234, 141, 234
        DC8 141, 39, 187, 99, 232, 136, 164, 234, 141, 234, 149, 233, 149, 234
        DC8 141, 234, 141, 234, 141, 197, 209, 99, 232, 99, 232, 99, 232, 99
        DC8 232, 99, 232, 99, 232, 99, 232, 99, 232, 99, 232, 99, 232, 99, 232
        DC8 99, 232, 99, 232, 99, 232, 99, 232, 99, 232, 99, 232, 99, 232, 99
        DC8 232, 99, 232, 99, 232, 99, 232, 99, 232, 104, 156, 202, 125, 202
        DC8 133, 234, 141, 234, 141, 234, 141, 234, 141, 234, 141, 234, 141
        DC8 234, 141, 234, 141, 234, 141, 234, 141, 202, 133, 202, 125, 203
        DC8 125, 203, 125, 202, 125, 170, 125, 202, 125, 202, 125, 203, 125
        DC8 203, 125, 202, 125, 203, 125, 203, 125, 203, 125, 203, 125, 203
        DC8 125, 102, 190, 102, 198, 102, 190, 102, 198, 102, 190, 102, 190
        DC8 102, 190, 102, 190, 102, 190, 102, 198, 102, 198, 102, 198, 102
        DC8 190, 102, 190, 102, 190, 102, 190, 102, 190, 103, 190, 103, 190
        DC8 103, 190, 103, 190, 103, 190, 103, 190, 102, 190, 102, 190, 102
        DC8 190, 102, 190, 102, 190, 102, 190, 229, 204, 99, 232, 230, 204, 103
        DC8 190, 103, 190, 103, 190, 103, 190, 103, 190, 103, 190, 103, 182
        DC8 103, 182, 230, 196, 99, 232, 198, 196, 103, 182, 103, 182, 103, 190
        DC8 103, 190, 71, 182, 103, 182, 103, 190, 103, 182, 196, 225, 196, 225
        DC8 103, 182, 71, 182, 71, 182, 229, 210, 99, 232, 230, 196, 71, 182
        DC8 103, 182, 71, 182, 102, 196, 163, 232, 99, 232, 165, 210, 71, 182
        DC8 38, 189, 99, 232, 229, 210, 71, 182, 71, 182, 72, 182, 69, 211, 99
        DC8 232, 71, 182, 6, 204, 99, 232, 100, 225, 231, 181, 72, 182, 72, 174
        DC8 72, 182, 72, 174, 72, 182, 72, 182, 72, 174, 72, 174, 72, 174, 72
        DC8 174, 72, 174, 72, 174, 72, 174, 72, 174, 72, 174, 40, 174, 72, 174
        DC8 72, 174, 72, 174, 199, 188, 99, 232, 99, 232, 36, 218, 6, 196, 99
        DC8 232, 4, 225, 72, 174, 72, 174, 40, 174, 72, 174, 40, 174, 40, 174
        DC8 199, 188, 99, 232, 99, 232, 4, 225, 200, 173, 40, 174, 40, 174, 40
        DC8 166, 40, 174, 133, 210, 99, 232, 133, 210, 40, 166, 40, 166, 199
        DC8 188, 99, 232, 99, 232, 40, 166, 40, 166, 40, 166, 40, 166, 40, 166
        DC8 40, 166, 40, 166, 99, 232, 99, 232, 167, 180, 40, 166, 40, 166, 40
        DC8 166, 40, 166, 41, 166, 41, 166, 41, 166, 41, 166, 41, 166, 40, 166
        DC8 41, 158, 41, 158, 9, 158, 41, 158, 41, 158, 41, 158, 9, 158, 9, 158
        DC8 8, 173, 230, 202, 200, 165, 9, 158, 9, 158, 41, 158, 9, 158, 198
        DC8 202, 99, 232, 201, 165, 9, 158, 9, 158, 9, 158, 9, 158, 72, 165
        DC8 201, 165, 163, 232, 197, 217, 9, 158, 72, 165, 99, 232, 38, 195, 9
        DC8 158, 9, 158, 9, 158, 9, 158, 9, 158, 9, 158, 9, 158, 9, 158, 9, 158
        DC8 9, 158, 9, 158, 9, 158, 99, 232, 38, 195, 9, 158, 9, 158, 9, 158, 9
        DC8 158, 38, 195, 99, 232, 9, 150, 233, 149, 233, 149, 233, 149, 233
        DC8 149, 233, 149, 233, 149, 9, 150, 233, 149, 9, 150, 234, 149, 234
        DC8 149, 9, 150, 234, 149, 9, 150, 9, 150, 38, 195, 99, 232, 234, 141
        DC8 233, 149, 234, 149, 234, 141, 234, 141, 234, 141, 234, 149, 233
        DC8 149, 9, 150, 9, 158, 197, 217, 197, 209, 9, 150, 9, 150, 9, 150
        DC8 233, 149, 9, 150, 9, 150, 9, 150, 233, 141, 234, 141, 234, 141, 136
        DC8 164, 99, 232, 102, 202, 38, 187, 38, 187, 38, 187, 38, 187, 99, 232
        DC8 38, 187, 234, 141, 234, 141, 233, 156, 163, 224, 99, 232, 201, 156
        DC8 234, 133, 234, 141, 234, 133, 234, 141, 38, 187, 99, 232, 136, 164
        DC8 233, 149, 234, 149, 234, 141, 234, 141, 10, 142, 234, 141, 234, 141
        DC8 234, 141, 234, 149, 234, 141, 234, 133, 202, 133, 106, 141, 102
        DC8 194, 99, 232, 100, 217, 138, 141, 202, 133, 202, 133, 41, 149, 100
        DC8 217, 99, 232, 165, 209, 201, 148, 202, 133, 202, 133, 202, 133, 202
        DC8 133, 202, 125, 202, 125, 202, 133, 234, 141, 234, 141, 234, 141
        DC8 234, 141, 234, 141, 234, 141, 234, 141, 234, 141, 234, 141, 234
        DC8 141, 202, 133, 202, 133, 170, 125, 202, 125, 202, 125, 202, 125
        DC8 203, 125, 170, 125, 202, 125, 203, 125, 202, 125, 202, 125, 203
        DC8 125, 171, 125, 202, 125, 203, 125, 203, 125, 203, 125, 102, 198
        DC8 102, 198, 102, 190, 134, 198, 102, 190, 102, 190, 103, 190, 102
        DC8 190, 102, 190, 102, 190, 102, 190, 102, 198, 102, 198, 102, 190
        DC8 102, 190, 102, 190, 102, 190, 103, 190, 103, 190, 103, 190, 103
        DC8 190, 103, 190, 103, 190, 103, 190, 103, 190, 103, 190, 103, 190
        DC8 102, 190, 102, 190, 229, 204, 99, 232, 230, 204, 103, 190, 103, 190
        DC8 103, 190, 103, 190, 103, 190, 103, 190, 103, 182, 103, 190, 198
        DC8 196, 99, 232, 198, 196, 103, 190, 71, 182, 71, 182, 103, 190, 71
        DC8 182, 103, 190, 71, 182, 71, 182, 196, 225, 196, 217, 103, 190, 71
        DC8 182, 71, 182, 103, 182, 38, 197, 71, 182, 103, 182, 71, 182, 103
        DC8 182, 72, 182, 167, 189, 100, 225, 99, 232, 100, 225, 36, 218, 99
        DC8 232, 38, 197, 72, 182, 72, 182, 71, 182, 69, 203, 99, 232, 72, 182
        DC8 72, 182, 6, 204, 99, 232, 100, 225, 231, 181, 72, 182, 72, 182, 72
        DC8 182, 72, 182, 72, 182, 72, 174, 72, 174, 72, 174, 72, 174, 72, 174
        DC8 40, 174, 72, 174, 72, 174, 72, 174, 40, 174, 72, 174, 72, 174, 72
        DC8 174, 199, 188, 99, 232, 163, 232, 232, 181, 72, 174, 4, 225, 99
        DC8 232, 6, 196, 72, 174, 72, 174, 72, 174, 40, 174, 72, 174, 199, 188
        DC8 99, 232, 99, 232, 199, 188, 40, 174, 40, 174, 40, 166, 40, 174, 40
        DC8 166, 103, 181, 99, 232, 4, 225, 40, 166, 40, 166, 167, 188, 99, 232
        DC8 99, 232, 40, 166, 40, 166, 40, 166, 40, 166, 40, 166, 40, 166, 40
        DC8 166, 99, 232, 99, 232, 167, 180, 41, 166, 41, 158, 41, 166, 41, 158
        DC8 41, 166, 41, 166, 41, 166, 41, 158, 41, 166, 41, 166, 41, 166, 41
        DC8 166, 41, 166, 41, 158, 41, 166, 41, 166, 9, 158, 9, 158, 9, 158, 41
        DC8 166, 9, 158, 231, 187, 196, 217, 196, 217, 196, 217, 4, 225, 99
        DC8 232, 100, 217, 197, 217, 197, 217, 197, 217, 197, 217, 9, 158, 9
        DC8 158, 37, 210, 99, 232, 169, 157, 231, 187, 99, 232, 168, 172, 9
        DC8 158, 9, 158, 9, 158, 9, 158, 9, 158, 9, 158, 9, 158, 9, 158, 9, 158
        DC8 9, 158, 9, 158, 9, 158, 99, 232, 38, 195, 9, 158, 9, 150, 9, 150
        DC8 233, 149, 38, 195, 99, 232, 9, 150, 9, 150, 9, 150, 233, 149, 233
        DC8 149, 233, 149, 9, 150, 10, 150, 234, 149, 9, 150, 233, 149, 233
        DC8 149, 9, 150, 233, 149, 234, 149, 233, 149, 38, 195, 99, 232, 9, 150
        DC8 234, 149, 234, 149, 234, 149, 233, 149, 9, 150, 9, 150, 9, 158, 9
        DC8 150, 9, 150, 197, 209, 197, 217, 9, 150, 9, 150, 9, 150, 9, 150
        DC8 233, 149, 234, 149, 234, 141, 234, 141, 234, 141, 234, 141, 136
        DC8 164, 99, 232, 99, 232, 99, 232, 99, 232, 99, 232, 99, 232, 99, 232
        DC8 38, 187, 234, 141, 234, 133, 234, 141, 199, 171, 99, 232, 163, 224
        DC8 201, 156, 234, 141, 234, 141, 234, 141, 38, 187, 99, 232, 136, 164
        DC8 234, 141, 233, 149, 234, 141, 234, 149, 234, 141, 234, 149, 234
        DC8 141, 234, 141, 234, 141, 202, 133, 202, 133, 104, 156, 4, 225, 99
        DC8 232, 5, 202, 106, 141, 234, 133, 202, 133, 202, 133, 202, 133, 202
        DC8 133, 7, 179, 99, 232, 99, 232, 102, 194, 106, 141, 202, 125, 202
        DC8 125, 202, 133, 234, 141, 234, 141, 234, 141, 234, 141, 234, 141
        DC8 234, 141, 234, 141, 234, 141, 234, 141, 234, 141, 234, 133, 202
        DC8 133, 202, 125, 202, 125, 203, 125, 203, 125, 202, 125, 203, 125
        DC8 203, 125, 202, 125, 202, 125, 202, 125, 203, 125, 203, 125, 203
        DC8 125, 171, 125, 171, 125, 171, 125, 203, 125, 203, 125, 134, 198
        DC8 134, 198, 134, 198, 102, 190, 102, 190, 102, 190, 102, 190, 102
        DC8 190, 102, 190, 102, 190, 102, 190, 102, 190, 102, 190, 102, 198
        DC8 102, 198, 102, 198, 102, 190, 103, 190, 103, 190, 103, 190, 103
        DC8 190, 103, 190, 103, 190, 103, 190, 103, 190, 103, 190, 103, 190
        DC8 103, 190, 102, 190, 229, 204, 99, 232, 230, 196, 103, 190, 103, 190
        DC8 103, 190, 103, 190, 103, 190, 103, 190, 103, 182, 103, 182, 230
        DC8 196, 99, 232, 198, 196, 103, 182, 103, 190, 103, 190, 71, 182, 71
        DC8 182, 71, 182, 103, 182, 71, 182, 196, 217, 196, 225, 71, 182, 71
        DC8 182, 71, 182, 71, 182, 71, 182, 103, 182, 103, 182, 71, 182, 103
        DC8 182, 71, 182, 103, 182, 231, 189, 133, 210, 99, 232, 99, 232, 4
        DC8 225, 71, 182, 71, 182, 71, 182, 72, 182, 69, 211, 99, 232, 71, 182
        DC8 72, 182, 72, 182, 6, 196, 99, 232, 100, 225, 72, 182, 72, 182, 72
        DC8 182, 72, 174, 72, 174, 72, 174, 72, 174, 72, 174, 72, 174, 72, 174
        DC8 72, 174, 72, 174, 72, 174, 72, 174, 71, 174, 72, 174, 72, 174, 72
        DC8 174, 199, 188, 99, 232, 196, 217, 72, 174, 72, 174, 69, 203, 99
        DC8 232, 4, 225, 72, 174, 72, 174, 40, 174, 40, 174, 72, 174, 199, 188
        DC8 99, 232, 99, 232, 72, 174, 40, 166, 40, 174, 40, 174, 40, 166, 40
        DC8 174, 40, 166, 99, 232, 99, 232, 40, 166, 40, 166, 167, 188, 99, 232
        DC8 99, 232, 40, 166, 40, 166, 40, 166, 40, 166, 40, 166, 40, 166, 200
        DC8 165, 99, 232, 99, 232, 200, 173, 41, 166, 41, 166, 41, 166, 41, 166
        DC8 41, 166, 41, 166, 41, 166, 41, 166, 41, 158, 41, 166, 41, 166, 41
        DC8 166, 41, 166, 41, 158, 41, 158, 41, 158, 9, 158, 9, 158, 9, 158, 9
        DC8 158, 9, 158, 38, 195, 99, 232, 99, 232, 99, 232, 99, 232, 99, 232
        DC8 99, 232, 99, 232, 99, 232, 99, 232, 99, 232, 9, 158, 9, 158, 134
        DC8 187, 99, 232, 71, 180, 37, 210, 99, 232, 9, 158, 9, 158, 9, 158, 9
        DC8 158, 41, 158, 9, 158, 9, 158, 9, 158, 41, 166, 9, 158, 9, 158, 41
        DC8 158, 8, 173, 99, 232, 38, 195, 9, 150, 233, 149, 9, 150, 9, 150, 38
        DC8 195, 99, 232, 9, 150, 9, 150, 9, 150, 9, 150, 9, 150, 9, 150, 9
        DC8 150, 10, 150, 234, 149, 9, 150, 233, 149, 234, 149, 9, 150, 9, 150
        DC8 234, 149, 233, 149, 38, 195, 99, 232, 234, 149, 233, 149, 9, 150, 9
        DC8 150, 9, 150, 9, 150, 9, 158, 9, 150, 9, 158, 9, 150, 197, 209, 197
        DC8 217, 233, 149, 9, 150, 233, 149, 234, 141, 234, 141, 234, 141, 234
        DC8 141, 234, 141, 234, 141, 234, 141, 136, 164, 99, 232, 136, 164, 234
        DC8 141, 234, 141, 234, 141, 234, 141, 99, 232, 38, 187, 234, 141, 234
        DC8 141, 234, 141, 234, 141, 38, 187, 99, 232, 100, 217, 137, 149, 234
        DC8 149, 234, 149, 38, 187, 99, 232, 136, 164, 234, 141, 234, 149, 234
        DC8 149, 234, 149, 234, 141, 234, 141, 202, 133, 234, 133, 202, 133
        DC8 201, 148, 5, 202, 99, 232, 163, 224, 103, 179, 202, 133, 202, 133
        DC8 202, 133, 202, 133, 202, 133, 202, 133, 202, 133, 202, 133, 201
        DC8 148, 165, 209, 99, 232, 163, 224, 102, 194, 41, 149, 233, 141, 234
        DC8 141, 234, 141, 234, 141, 234, 141, 234, 141, 234, 141, 234, 141
        DC8 234, 141, 234, 133, 202, 133, 202, 125, 202, 125, 202, 125, 202
        DC8 125, 202, 125, 202, 125, 202, 125, 202, 125, 202, 125, 203, 125
        DC8 203, 125, 202, 125, 203, 125, 202, 125, 202, 125, 170, 125, 170
        DC8 125, 203, 125, 203, 125, 202, 133, 102, 190, 102, 190, 134, 198
        DC8 134, 198, 102, 198, 102, 190, 102, 190, 103, 190, 102, 190, 103
        DC8 190, 102, 190, 103, 190, 102, 190, 102, 190, 102, 190, 102, 190
        DC8 102, 198, 102, 198, 102, 190, 102, 190, 103, 190, 103, 190, 103
        DC8 190, 103, 190, 103, 190, 103, 190, 103, 190, 103, 190, 103, 190
        DC8 230, 196, 99, 232, 230, 196, 103, 190, 103, 190, 103, 190, 103, 190
        DC8 103, 190, 103, 190, 103, 190, 103, 190, 230, 196, 99, 232, 230, 196
        DC8 71, 182, 71, 182, 103, 190, 103, 190, 71, 182, 71, 182, 71, 182, 71
        DC8 182, 196, 217, 196, 217, 71, 182, 71, 182, 71, 182, 71, 182, 71
        DC8 182, 71, 182, 71, 182, 71, 182, 71, 182, 72, 182, 71, 182, 71, 182
        DC8 71, 182, 100, 225, 99, 232, 6, 204, 71, 182, 71, 182, 71, 182, 71
        DC8 182, 69, 211, 99, 232, 71, 182, 72, 182, 72, 182, 72, 182, 133, 210
        DC8 99, 232, 133, 210, 72, 174, 72, 182, 72, 174, 72, 174, 72, 174, 72
        DC8 174, 72, 174, 72, 174, 72, 174, 72, 174, 72, 174, 72, 174, 40, 174
        DC8 72, 174, 72, 174, 72, 174, 72, 174, 199, 188, 99, 232, 196, 217, 72
        DC8 174, 72, 174, 200, 173, 163, 232, 99, 232, 102, 188, 40, 174, 40
        DC8 174, 40, 174, 40, 174, 167, 188, 99, 232, 99, 232, 40, 174, 40, 166
        DC8 40, 166, 40, 166, 40, 166, 40, 166, 40, 166, 99, 232, 99, 232, 41
        DC8 166, 40, 166, 200, 173, 99, 232, 99, 232, 104, 173, 40, 166, 40
        DC8 166, 40, 166, 40, 166, 40, 166, 167, 180, 99, 232, 99, 232, 41, 166
        DC8 41, 166, 41, 166, 41, 166, 9, 158, 41, 166, 41, 166, 41, 166, 9
        DC8 158, 41, 166, 41, 158, 41, 166, 41, 158, 41, 166, 41, 166, 41, 158
        DC8 40, 166, 9, 158, 9, 158, 41, 166, 38, 195, 38, 195, 9, 158, 41, 158
        DC8 167, 180, 99, 232, 167, 180, 9, 158, 9, 158, 9, 158, 9, 158, 9, 158
        DC8 9, 158, 9, 158, 9, 158, 104, 165, 99, 232, 37, 210, 99, 232, 37
        DC8 210, 9, 158, 9, 158, 9, 158, 9, 158, 9, 158, 9, 158, 9, 158, 9, 158
        DC8 9, 158, 9, 158, 9, 158, 9, 150, 39, 172, 99, 232, 71, 180, 233, 149
        DC8 9, 150, 9, 150, 9, 150, 38, 195, 99, 232, 9, 150, 9, 150, 9, 150, 9
        DC8 150, 233, 149, 9, 150, 233, 149, 233, 149, 233, 149, 234, 149, 9
        DC8 150, 234, 149, 9, 150, 233, 149, 234, 149, 234, 141, 38, 195, 99
        DC8 232, 9, 150, 9, 158, 9, 158, 9, 150, 9, 158, 9, 158, 9, 150, 9, 150
        DC8 9, 158, 233, 149, 197, 209, 197, 209, 234, 149, 234, 141, 233, 141
        DC8 234, 141, 234, 141, 234, 141, 234, 141, 234, 141, 234, 141, 234
        DC8 141, 136, 164, 99, 232, 136, 164, 234, 141, 234, 141, 234, 141, 234
        DC8 141, 99, 232, 38, 187, 234, 141, 234, 141, 234, 141, 234, 141, 234
        DC8 141, 5, 210, 99, 232, 101, 202, 234, 149, 234, 149, 39, 187, 99
        DC8 232, 136, 164, 234, 149, 234, 149, 234, 149, 234, 141, 202, 133
        DC8 202, 133, 201, 156, 103, 179, 100, 217, 99, 232, 99, 232, 102, 194
        DC8 41, 149, 202, 133, 202, 133, 202, 133, 202, 133, 202, 133, 202, 133
        DC8 202, 133, 202, 133, 202, 133, 202, 133, 202, 133, 104, 156, 165
        DC8 209, 99, 232, 99, 232, 100, 217, 135, 179, 233, 156, 234, 141, 234
        DC8 141, 234, 141, 234, 141, 234, 141, 202, 133, 202, 125, 203, 125
        DC8 203, 125, 202, 125, 202, 125, 202, 125, 202, 125, 203, 125, 202
        DC8 125, 202, 125, 202, 125, 202, 125, 202, 125, 203, 125, 203, 125
        DC8 202, 125, 203, 125, 171, 125, 202, 125, 202, 125, 202, 133, 202
        DC8 133, 102, 190, 102, 190, 102, 190, 102, 190, 134, 198, 102, 190
        DC8 102, 190, 102, 190, 102, 190, 102, 190, 102, 190, 102, 190, 102
        DC8 190, 103, 190, 102, 190, 102, 190, 102, 190, 102, 190, 102, 198
        DC8 102, 190, 102, 190, 103, 190, 103, 190, 103, 190, 103, 190, 103
        DC8 190, 103, 190, 103, 190, 103, 190, 230, 196, 99, 232, 230, 196, 103
        DC8 190, 103, 190, 103, 190, 103, 190, 103, 190, 103, 190, 103, 190
        DC8 103, 190, 230, 204, 99, 232, 230, 204, 103, 190, 71, 182, 71, 182
        DC8 103, 182, 71, 182, 71, 182, 71, 182, 71, 182, 196, 217, 196, 217
        DC8 71, 182, 71, 182, 71, 182, 71, 182, 71, 182, 71, 182, 71, 182, 71
        DC8 182, 71, 182, 71, 182, 71, 182, 71, 182, 135, 189, 99, 232, 4, 225
        DC8 71, 182, 71, 182, 71, 182, 71, 182, 71, 182, 69, 211, 99, 232, 72
        DC8 182, 72, 182, 72, 182, 72, 182, 72, 182, 133, 210, 99, 232, 6, 204
        DC8 72, 182, 72, 174, 72, 174, 72, 174, 72, 174, 72, 174, 72, 174, 72
        DC8 174, 72, 174, 72, 174, 72, 174, 72, 174, 72, 174, 72, 174, 72, 174
        DC8 72, 174, 199, 188, 99, 232, 196, 217, 40, 174, 40, 174, 40, 174, 69
        DC8 203, 99, 232, 196, 217, 40, 166, 40, 166, 40, 174, 40, 174, 40, 166
        DC8 99, 232, 99, 232, 104, 173, 40, 166, 40, 166, 40, 166, 40, 166, 40
        DC8 166, 40, 166, 99, 232, 99, 232, 40, 166, 40, 166, 40, 166, 4, 225
        DC8 99, 232, 103, 188, 40, 166, 40, 166, 40, 166, 40, 166, 40, 166, 230
        DC8 187, 99, 232, 196, 217, 40, 166, 41, 166, 41, 166, 41, 166, 41, 166
        DC8 41, 166, 41, 166, 41, 158, 41, 166, 41, 166, 41, 166, 41, 166, 41
        DC8 158, 41, 158, 9, 158, 41, 158, 41, 166, 41, 158, 9, 158, 9, 158, 4
        DC8 225, 100, 217, 9, 158, 9, 158, 167, 172, 99, 232, 134, 187, 167
        DC8 180, 167, 180, 167, 180, 167, 180, 9, 158, 41, 158, 41, 166, 41
        DC8 158, 41, 166, 100, 217, 99, 232, 99, 232, 231, 187, 9, 158, 9, 158
        DC8 9, 158, 9, 158, 41, 158, 9, 158, 9, 150, 9, 150, 9, 158, 9, 158, 9
        DC8 158, 9, 150, 198, 202, 99, 232, 232, 164, 9, 150, 9, 150, 9, 150, 9
        DC8 150, 38, 195, 99, 232, 9, 150, 9, 150, 9, 150, 9, 150, 234, 149, 9
        DC8 150, 9, 150, 234, 149, 9, 150, 9, 150, 233, 149, 234, 149, 233, 149
        DC8 233, 149, 233, 149, 9, 150, 38, 195, 99, 232, 9, 150, 9, 158, 9
        DC8 150, 9, 158, 9, 150, 9, 150, 9, 158, 9, 150, 9, 150, 233, 149, 197
        DC8 209, 197, 209, 234, 141, 234, 141, 234, 141, 234, 141, 234, 141
        DC8 234, 141, 234, 141, 234, 141, 234, 141, 234, 141, 136, 164, 99, 232
        DC8 136, 164, 234, 141, 234, 141, 234, 141, 234, 141, 99, 232, 38, 187
        DC8 234, 141, 234, 141, 234, 141, 234, 149, 233, 149, 137, 149, 4, 225
        DC8 99, 232, 199, 179, 234, 149, 38, 195, 99, 232, 136, 172, 234, 149
        DC8 234, 141, 202, 133, 202, 133, 202, 133, 234, 133, 99, 232, 99, 232
        DC8 163, 224, 100, 217, 199, 171, 104, 156, 104, 156, 104, 156, 104
        DC8 156, 104, 156, 202, 133, 202, 133, 202, 133, 202, 133, 106, 133
        DC8 104, 156, 104, 156, 136, 164, 136, 164, 136, 164, 199, 179, 100
        DC8 217, 99, 232, 99, 232, 99, 232, 233, 156, 234, 141, 234, 141, 234
        DC8 133, 202, 125, 202, 125, 203, 125, 202, 125, 203, 125, 202, 125
        DC8 203, 125, 202, 125, 202, 125, 203, 125, 202, 125, 203, 125, 203
        DC8 125, 202, 125, 203, 125, 203, 125, 202, 125, 203, 125, 202, 125
        DC8 202, 125, 202, 133, 234, 133, 202, 133, 234, 133, 102, 190, 102
        DC8 190, 102, 190, 102, 190, 102, 190, 102, 198, 134, 198, 102, 190
        DC8 102, 190, 102, 190, 103, 190, 102, 190, 102, 190, 102, 190, 102
        DC8 190, 103, 190, 103, 190, 102, 190, 102, 190, 102, 190, 102, 198
        DC8 102, 198, 102, 190, 102, 190, 103, 190, 103, 190, 103, 190, 103
        DC8 190, 103, 190, 230, 196, 99, 232, 230, 196, 103, 190, 103, 190, 103
        DC8 190, 103, 190, 103, 190, 103, 190, 103, 190, 103, 190, 230, 196, 99
        DC8 232, 230, 196, 103, 190, 103, 190, 102, 190, 71, 182, 71, 182, 103
        DC8 182, 103, 182, 71, 182, 196, 225, 196, 217, 71, 182, 71, 182, 71
        DC8 182, 71, 182, 71, 182, 71, 182, 71, 182, 71, 182, 71, 182, 71, 182
        DC8 71, 182, 71, 182, 100, 225, 99, 232, 102, 196, 71, 182, 71, 182, 71
        DC8 182, 71, 182, 71, 182, 69, 211, 99, 232, 72, 182, 71, 182, 72, 182
        DC8 72, 182, 72, 182, 72, 182, 133, 210, 231, 181, 72, 182, 72, 174, 72
        DC8 174, 72, 174, 72, 182, 72, 174, 72, 174, 72, 174, 72, 174, 72, 174
        DC8 72, 174, 72, 174, 72, 174, 72, 174, 72, 174, 72, 174, 199, 188, 99
        DC8 232, 196, 217, 72, 174, 72, 174, 40, 174, 200, 173, 163, 232, 99
        DC8 232, 199, 188, 40, 174, 40, 166, 40, 166, 40, 166, 100, 225, 99
        DC8 232, 6, 196, 40, 174, 40, 166, 40, 166, 40, 166, 40, 166, 40, 166
        DC8 99, 232, 163, 232, 40, 166, 40, 166, 40, 166, 229, 202, 99, 232
        DC8 133, 210, 40, 166, 41, 166, 40, 166, 40, 166, 40, 166, 133, 210, 99
        DC8 232, 166, 195, 40, 166, 41, 166, 41, 166, 41, 166, 41, 166, 41, 166
        DC8 40, 166, 41, 166, 41, 166, 41, 166, 41, 158, 41, 166, 41, 158, 41
        DC8 158, 41, 166, 41, 158, 41, 158, 9, 158, 41, 158, 104, 173, 99, 232
        DC8 230, 202, 9, 158, 9, 158, 167, 180, 99, 232, 99, 232, 99, 232, 99
        DC8 232, 99, 232, 99, 232, 163, 232, 71, 180, 41, 166, 41, 166, 9, 158
        DC8 134, 195, 99, 232, 163, 232, 9, 158, 9, 158, 9, 158, 9, 158, 9, 158
        DC8 9, 158, 9, 158, 9, 150, 9, 150, 9, 150, 9, 158, 9, 150, 9, 158, 4
        DC8 225, 4, 225, 9, 158, 9, 150, 10, 150, 9, 150, 9, 150, 38, 195, 99
        DC8 232, 9, 150, 233, 149, 9, 150, 9, 150, 234, 149, 9, 150, 9, 150
        DC8 233, 149, 233, 149, 10, 150, 233, 149, 9, 150, 9, 158, 9, 158, 9
        DC8 150, 9, 158, 38, 195, 99, 232, 9, 158, 9, 150, 9, 150, 9, 150, 9
        DC8 158, 9, 158, 233, 149, 234, 149, 234, 141, 234, 141, 197, 209, 197
        DC8 209, 234, 141, 234, 141, 234, 141, 234, 141, 234, 141, 234, 141
        DC8 234, 141, 234, 141, 234, 141, 234, 141, 136, 164, 99, 232, 136, 164
        DC8 234, 141, 234, 141, 234, 141, 234, 141, 99, 232, 38, 187, 234, 141
        DC8 233, 149, 9, 150, 234, 149, 234, 149, 234, 149, 232, 164, 99, 232
        DC8 163, 232, 234, 149, 38, 195, 99, 232, 136, 164, 234, 141, 202, 133
        DC8 202, 133, 234, 133, 234, 133, 203, 133, 199, 171, 40, 164, 165, 209
        DC8 99, 232, 99, 232, 99, 232, 99, 232, 99, 232, 99, 232, 99, 232, 5
        DC8 202, 202, 133, 202, 133, 41, 141, 163, 224, 99, 232, 99, 232, 99
        DC8 232, 99, 232, 99, 232, 99, 232, 99, 232, 163, 224, 199, 179, 38
        DC8 187, 234, 141, 234, 133, 202, 125, 203, 125, 202, 125, 203, 133
        DC8 203, 125, 202, 125, 203, 125, 202, 125, 202, 125, 202, 125, 202
        DC8 125, 202, 125, 202, 125, 202, 125, 202, 125, 202, 125, 202, 125
        DC8 171, 125, 203, 125, 202, 125, 202, 133, 202, 133, 202, 133, 234
        DC8 133, 202, 133, 234, 133, 102, 190, 102, 190, 135, 198, 102, 190
        DC8 102, 190, 103, 190, 102, 190, 102, 198, 102, 198, 102, 190, 102
        DC8 190, 102, 190, 102, 190, 102, 190, 103, 190, 103, 190, 103, 190
        DC8 103, 190, 103, 190, 103, 190, 102, 190, 102, 198, 102, 190, 103
        DC8 190, 102, 190, 102, 190, 103, 190, 103, 190, 103, 190, 230, 196, 99
        DC8 232, 230, 196, 103, 190, 103, 190, 103, 182, 71, 182, 103, 190, 103
        DC8 190, 103, 190, 103, 190, 230, 204, 99, 232, 230, 204, 103, 190, 103
        DC8 190, 103, 190, 103, 190, 103, 190, 103, 190, 103, 182, 103, 182
        DC8 196, 217, 196, 217, 71, 182, 71, 182, 71, 182, 71, 182, 71, 182, 71
        DC8 182, 71, 182, 71, 182, 71, 182, 71, 182, 71, 182, 133, 210, 99, 232
        DC8 36, 218, 71, 182, 71, 182, 71, 182, 71, 182, 71, 182, 71, 182, 69
        DC8 211, 99, 232, 72, 182, 71, 182, 72, 174, 72, 182, 72, 182, 71, 182
        DC8 72, 182, 72, 182, 72, 182, 72, 174, 72, 174, 72, 174, 72, 174, 72
        DC8 174, 72, 174, 72, 174, 72, 174, 72, 174, 72, 174, 72, 174, 72, 174
        DC8 72, 174, 72, 174, 72, 174, 199, 188, 99, 232, 196, 217, 72, 174, 40
        DC8 174, 40, 174, 40, 174, 133, 210, 99, 232, 196, 217, 40, 166, 40
        DC8 166, 40, 166, 40, 166, 6, 196, 99, 232, 196, 217, 40, 174, 40, 166
        DC8 40, 166, 40, 166, 40, 166, 167, 188, 99, 232, 133, 210, 40, 166, 41
        DC8 166, 40, 166, 104, 173, 99, 232, 163, 232, 200, 173, 40, 166, 41
        DC8 166, 40, 166, 200, 165, 163, 232, 99, 232, 200, 173, 41, 166, 41
        DC8 166, 41, 166, 41, 166, 41, 166, 41, 166, 41, 166, 41, 158, 41, 158
        DC8 41, 166, 41, 166, 41, 166, 9, 158, 41, 166, 41, 158, 41, 158, 41
        DC8 158, 41, 158, 9, 158, 134, 195, 99, 232, 71, 188, 41, 166, 41, 166
        DC8 230, 187, 99, 232, 133, 210, 70, 195, 70, 195, 70, 195, 230, 202
        DC8 99, 232, 196, 217, 41, 158, 41, 166, 41, 166, 70, 195, 99, 232, 100
        DC8 217, 9, 158, 9, 158, 9, 150, 9, 158, 9, 158, 9, 150, 9, 150, 9, 158
        DC8 233, 149, 9, 158, 9, 158, 9, 150, 231, 179, 99, 232, 198, 202, 9
        DC8 150, 9, 150, 9, 150, 9, 150, 233, 149, 38, 195, 99, 232, 9, 150, 9
        DC8 150, 9, 150, 9, 150, 233, 149, 9, 150, 233, 149, 169, 157, 136, 172
        DC8 169, 157, 9, 158, 9, 158, 9, 158, 9, 150, 9, 158, 9, 150, 38, 195
        DC8 99, 232, 9, 158, 9, 158, 9, 158, 9, 150, 9, 150, 234, 141, 234, 141
        DC8 234, 141, 234, 141, 234, 149, 197, 209, 197, 209, 234, 141, 234
        DC8 141, 234, 141, 234, 141, 234, 141, 234, 141, 234, 141, 234, 141
        DC8 234, 141, 234, 141, 136, 164, 99, 232, 136, 164, 234, 141, 234, 141
        DC8 234, 141, 234, 141, 99, 232, 38, 187, 9, 150, 9, 150, 234, 149, 234
        DC8 149, 233, 149, 233, 149, 233, 149, 135, 187, 199, 179, 234, 141, 38
        DC8 187, 99, 232, 136, 164, 234, 133, 202, 133, 202, 133, 202, 133, 202
        DC8 133, 202, 133, 202, 133, 104, 156, 99, 232, 100, 217, 104, 156, 104
        DC8 156, 104, 156, 104, 156, 8, 164, 100, 217, 99, 232, 202, 133, 202
        DC8 133, 38, 187, 99, 232, 102, 202, 136, 164, 136, 164, 136, 164, 136
        DC8 164, 136, 164, 198, 194, 99, 232, 38, 187, 234, 133, 202, 133, 202
        DC8 133, 202, 125, 202, 125, 202, 125, 202, 125, 202, 125, 202, 125
        DC8 203, 125, 202, 125, 203, 125, 203, 125, 203, 125, 202, 125, 202
        DC8 125, 202, 125, 171, 125, 170, 125, 202, 125, 202, 125, 202, 133
        DC8 234, 133, 234, 133, 202, 133, 234, 133, 202, 133, 202, 133, 202
        DC8 133, 102, 190, 102, 198, 102, 190, 102, 190, 102, 190, 102, 190
        DC8 102, 190, 102, 190, 102, 190, 102, 198, 102, 198, 102, 190, 102
        DC8 190, 103, 190, 103, 190, 103, 190, 103, 190, 103, 190, 103, 190
        DC8 103, 190, 103, 182, 103, 190, 102, 190, 102, 190, 102, 190, 102
        DC8 190, 102, 190, 102, 190, 103, 190, 230, 204, 99, 232, 230, 196, 103
        DC8 190, 102, 190, 103, 182, 103, 190, 103, 182, 71, 182, 103, 182, 71
        DC8 182, 230, 196, 99, 232, 230, 196, 103, 190, 103, 190, 103, 190, 71
        DC8 182, 103, 190, 104, 190, 103, 182, 103, 190, 196, 217, 228, 225
        DC8 103, 190, 71, 182, 71, 182, 71, 182, 71, 182, 71, 182, 71, 182, 71
        DC8 182, 71, 182, 71, 182, 165, 203, 99, 232, 100, 225, 231, 181, 71
        DC8 182, 71, 182, 71, 182, 72, 182, 71, 182, 72, 182, 69, 211, 99, 232
        DC8 72, 182, 71, 182, 72, 182, 72, 174, 72, 174, 72, 174, 72, 182, 72
        DC8 182, 72, 182, 72, 174, 72, 174, 72, 174, 72, 174, 71, 174, 72, 174
        DC8 72, 174, 72, 174, 72, 174, 72, 174, 40, 174, 72, 174, 72, 174, 72
        DC8 174, 72, 174, 199, 188, 99, 232, 196, 217, 40, 174, 40, 174, 40
        DC8 174, 72, 174, 135, 181, 99, 232, 99, 232, 7, 181, 40, 174, 40, 174
        DC8 40, 166, 40, 166, 4, 225, 99, 232, 103, 188, 40, 166, 40, 166, 40
        DC8 166, 40, 166, 133, 210, 99, 232, 104, 173, 40, 166, 40, 166, 40
        DC8 166, 40, 166, 229, 202, 99, 232, 229, 202, 40, 166, 40, 166, 40
        DC8 166, 70, 203, 99, 232, 70, 203, 41, 166, 40, 166, 41, 166, 41, 166
        DC8 41, 166, 41, 158, 41, 166, 41, 166, 41, 166, 41, 166, 40, 166, 41
        DC8 158, 41, 166, 41, 166, 41, 158, 41, 166, 41, 166, 41, 166, 41, 166
        DC8 41, 166, 4, 225, 163, 232, 41, 158, 41, 166, 41, 166, 37, 210, 99
        DC8 232, 200, 165, 9, 158, 41, 166, 41, 158, 41, 158, 100, 217, 196
        DC8 217, 41, 166, 9, 158, 104, 165, 163, 232, 99, 232, 99, 232, 71, 180
        DC8 9, 158, 9, 158, 9, 158, 9, 158, 9, 158, 9, 150, 9, 150, 9, 150, 9
        DC8 158, 9, 150, 169, 157, 4, 225, 99, 232, 73, 165, 9, 150, 9, 150, 9
        DC8 158, 9, 158, 9, 150, 38, 195, 99, 232, 9, 150, 9, 150, 233, 149, 9
        DC8 150, 233, 149, 9, 150, 9, 150, 168, 172, 99, 232, 167, 172, 9, 158
        DC8 9, 158, 9, 158, 9, 158, 9, 150, 9, 158, 38, 195, 99, 232, 9, 158, 9
        DC8 150, 234, 149, 234, 149, 234, 141, 234, 141, 234, 141, 234, 141
        DC8 234, 141, 234, 141, 197, 209, 197, 209, 234, 141, 234, 141, 234
        DC8 141, 234, 141, 234, 141, 234, 141, 234, 141, 234, 141, 234, 141
        DC8 234, 141, 136, 164, 99, 232, 136, 164, 234, 141, 234, 141, 234, 149
        DC8 233, 149, 99, 232, 38, 195, 9, 150, 9, 142, 234, 149, 234, 149, 233
        DC8 149, 234, 149, 234, 149, 234, 149, 234, 141, 234, 133, 38, 187, 99
        DC8 232, 136, 164, 234, 133, 234, 141, 234, 133, 202, 133, 234, 133
        DC8 234, 133, 202, 133, 104, 156, 99, 232, 136, 164, 202, 133, 202, 133
        DC8 202, 133, 202, 133, 202, 133, 7, 187, 99, 232, 234, 141, 234, 141
        DC8 38, 187, 99, 232, 137, 149, 234, 141, 234, 141, 234, 141, 234, 141
        DC8 234, 141, 234, 141, 99, 232, 7, 187, 202, 133, 202, 125, 202, 133
        DC8 202, 125, 202, 125, 202, 125, 202, 125, 202, 125, 203, 125, 203
        DC8 125, 202, 125, 203, 125, 202, 125, 202, 125, 202, 125, 202, 125
